
bomb:     file format elf32-i386


Disassembly of section .init:

08048724 <_init>:
 8048724:	53                   	push   %ebx
 8048725:	83 ec 08             	sub    $0x8,%esp
 8048728:	e8 23 02 00 00       	call   8048950 <__x86.get_pc_thunk.bx>
 804872d:	81 c3 d3 38 00 00    	add    $0x38d3,%ebx
 8048733:	8b 83 fc ff ff ff    	mov    -0x4(%ebx),%eax
 8048739:	85 c0                	test   %eax,%eax
 804873b:	74 05                	je     8048742 <_init+0x1e>
 804873d:	e8 de 00 00 00       	call   8048820 <__gmon_start__@plt>
 8048742:	83 c4 08             	add    $0x8,%esp
 8048745:	5b                   	pop    %ebx
 8048746:	c3                   	ret

Disassembly of section .plt:

08048750 <.plt>:
 8048750:	ff 35 04 c0 04 08    	pushl  0x804c004
 8048756:	ff 25 08 c0 04 08    	jmp    *0x804c008
 804875c:	00 00                	add    %al,(%eax)
	...

08048760 <read@plt>:
 8048760:	ff 25 0c c0 04 08    	jmp    *0x804c00c
 8048766:	68 00 00 00 00       	push   $0x0
 804876b:	e9 e0 ff ff ff       	jmp    8048750 <.plt>

08048770 <fflush@plt>:
 8048770:	ff 25 10 c0 04 08    	jmp    *0x804c010
 8048776:	68 08 00 00 00       	push   $0x8
 804877b:	e9 d0 ff ff ff       	jmp    8048750 <.plt>

08048780 <fgets@plt>:
 8048780:	ff 25 14 c0 04 08    	jmp    *0x804c014
 8048786:	68 10 00 00 00       	push   $0x10
 804878b:	e9 c0 ff ff ff       	jmp    8048750 <.plt>

08048790 <signal@plt>:
 8048790:	ff 25 18 c0 04 08    	jmp    *0x804c018
 8048796:	68 18 00 00 00       	push   $0x18
 804879b:	e9 b0 ff ff ff       	jmp    8048750 <.plt>

080487a0 <sleep@plt>:
 80487a0:	ff 25 1c c0 04 08    	jmp    *0x804c01c
 80487a6:	68 20 00 00 00       	push   $0x20
 80487ab:	e9 a0 ff ff ff       	jmp    8048750 <.plt>

080487b0 <alarm@plt>:
 80487b0:	ff 25 20 c0 04 08    	jmp    *0x804c020
 80487b6:	68 28 00 00 00       	push   $0x28
 80487bb:	e9 90 ff ff ff       	jmp    8048750 <.plt>

080487c0 <__stack_chk_fail@plt>:
 80487c0:	ff 25 24 c0 04 08    	jmp    *0x804c024
 80487c6:	68 30 00 00 00       	push   $0x30
 80487cb:	e9 80 ff ff ff       	jmp    8048750 <.plt>

080487d0 <strcpy@plt>:
 80487d0:	ff 25 28 c0 04 08    	jmp    *0x804c028
 80487d6:	68 38 00 00 00       	push   $0x38
 80487db:	e9 70 ff ff ff       	jmp    8048750 <.plt>

080487e0 <getenv@plt>:
 80487e0:	ff 25 2c c0 04 08    	jmp    *0x804c02c
 80487e6:	68 40 00 00 00       	push   $0x40
 80487eb:	e9 60 ff ff ff       	jmp    8048750 <.plt>

080487f0 <puts@plt>:
 80487f0:	ff 25 30 c0 04 08    	jmp    *0x804c030
 80487f6:	68 48 00 00 00       	push   $0x48
 80487fb:	e9 50 ff ff ff       	jmp    8048750 <.plt>

08048800 <__memmove_chk@plt>:
 8048800:	ff 25 34 c0 04 08    	jmp    *0x804c034
 8048806:	68 50 00 00 00       	push   $0x50
 804880b:	e9 40 ff ff ff       	jmp    8048750 <.plt>

08048810 <__memcpy_chk@plt>:
 8048810:	ff 25 38 c0 04 08    	jmp    *0x804c038
 8048816:	68 58 00 00 00       	push   $0x58
 804881b:	e9 30 ff ff ff       	jmp    8048750 <.plt>

08048820 <__gmon_start__@plt>:
 8048820:	ff 25 3c c0 04 08    	jmp    *0x804c03c
 8048826:	68 60 00 00 00       	push   $0x60
 804882b:	e9 20 ff ff ff       	jmp    8048750 <.plt>

08048830 <exit@plt>:
 8048830:	ff 25 40 c0 04 08    	jmp    *0x804c040
 8048836:	68 68 00 00 00       	push   $0x68
 804883b:	e9 10 ff ff ff       	jmp    8048750 <.plt>

08048840 <__libc_start_main@plt>:
 8048840:	ff 25 44 c0 04 08    	jmp    *0x804c044
 8048846:	68 70 00 00 00       	push   $0x70
 804884b:	e9 00 ff ff ff       	jmp    8048750 <.plt>

08048850 <write@plt>:
 8048850:	ff 25 48 c0 04 08    	jmp    *0x804c048
 8048856:	68 78 00 00 00       	push   $0x78
 804885b:	e9 f0 fe ff ff       	jmp    8048750 <.plt>

08048860 <__isoc99_sscanf@plt>:
 8048860:	ff 25 4c c0 04 08    	jmp    *0x804c04c
 8048866:	68 80 00 00 00       	push   $0x80
 804886b:	e9 e0 fe ff ff       	jmp    8048750 <.plt>

08048870 <fopen@plt>:
 8048870:	ff 25 50 c0 04 08    	jmp    *0x804c050
 8048876:	68 88 00 00 00       	push   $0x88
 804887b:	e9 d0 fe ff ff       	jmp    8048750 <.plt>

08048880 <__errno_location@plt>:
 8048880:	ff 25 54 c0 04 08    	jmp    *0x804c054
 8048886:	68 90 00 00 00       	push   $0x90
 804888b:	e9 c0 fe ff ff       	jmp    8048750 <.plt>

08048890 <__printf_chk@plt>:
 8048890:	ff 25 58 c0 04 08    	jmp    *0x804c058
 8048896:	68 98 00 00 00       	push   $0x98
 804889b:	e9 b0 fe ff ff       	jmp    8048750 <.plt>

080488a0 <socket@plt>:
 80488a0:	ff 25 5c c0 04 08    	jmp    *0x804c05c
 80488a6:	68 a0 00 00 00       	push   $0xa0
 80488ab:	e9 a0 fe ff ff       	jmp    8048750 <.plt>

080488b0 <__fprintf_chk@plt>:
 80488b0:	ff 25 60 c0 04 08    	jmp    *0x804c060
 80488b6:	68 a8 00 00 00       	push   $0xa8
 80488bb:	e9 90 fe ff ff       	jmp    8048750 <.plt>

080488c0 <gethostbyname@plt>:
 80488c0:	ff 25 64 c0 04 08    	jmp    *0x804c064
 80488c6:	68 b0 00 00 00       	push   $0xb0
 80488cb:	e9 80 fe ff ff       	jmp    8048750 <.plt>

080488d0 <strtol@plt>:
 80488d0:	ff 25 68 c0 04 08    	jmp    *0x804c068
 80488d6:	68 b8 00 00 00       	push   $0xb8
 80488db:	e9 70 fe ff ff       	jmp    8048750 <.plt>

080488e0 <connect@plt>:
 80488e0:	ff 25 6c c0 04 08    	jmp    *0x804c06c
 80488e6:	68 c0 00 00 00       	push   $0xc0
 80488eb:	e9 60 fe ff ff       	jmp    8048750 <.plt>

080488f0 <close@plt>:
 80488f0:	ff 25 70 c0 04 08    	jmp    *0x804c070
 80488f6:	68 c8 00 00 00       	push   $0xc8
 80488fb:	e9 50 fe ff ff       	jmp    8048750 <.plt>

08048900 <__ctype_b_loc@plt>:
 8048900:	ff 25 74 c0 04 08    	jmp    *0x804c074
 8048906:	68 d0 00 00 00       	push   $0xd0
 804890b:	e9 40 fe ff ff       	jmp    8048750 <.plt>

08048910 <__sprintf_chk@plt>:
 8048910:	ff 25 78 c0 04 08    	jmp    *0x804c078
 8048916:	68 d8 00 00 00       	push   $0xd8
 804891b:	e9 30 fe ff ff       	jmp    8048750 <.plt>

Disassembly of section .text:

08048920 <_start>:
 8048920:	31 ed                	xor    %ebp,%ebp
 8048922:	5e                   	pop    %esi
 8048923:	89 e1                	mov    %esp,%ecx
 8048925:	83 e4 f0             	and    $0xfffffff0,%esp
 8048928:	50                   	push   %eax
 8048929:	54                   	push   %esp
 804892a:	52                   	push   %edx
 804892b:	68 b0 a1 04 08       	push   $0x804a1b0
 8048930:	68 40 a1 04 08       	push   $0x804a140
 8048935:	51                   	push   %ecx
 8048936:	56                   	push   %esi
 8048937:	68 1d 8a 04 08       	push   $0x8048a1d
 804893c:	e8 ff fe ff ff       	call   8048840 <__libc_start_main@plt>
 8048941:	f4                   	hlt
 8048942:	66 90                	xchg   %ax,%ax
 8048944:	66 90                	xchg   %ax,%ax
 8048946:	66 90                	xchg   %ax,%ax
 8048948:	66 90                	xchg   %ax,%ax
 804894a:	66 90                	xchg   %ax,%ax
 804894c:	66 90                	xchg   %ax,%ax
 804894e:	66 90                	xchg   %ax,%ax

08048950 <__x86.get_pc_thunk.bx>:
 8048950:	8b 1c 24             	mov    (%esp),%ebx
 8048953:	c3                   	ret
 8048954:	66 90                	xchg   %ax,%ax
 8048956:	66 90                	xchg   %ax,%ax
 8048958:	66 90                	xchg   %ax,%ax
 804895a:	66 90                	xchg   %ax,%ax
 804895c:	66 90                	xchg   %ax,%ax
 804895e:	66 90                	xchg   %ax,%ax

08048960 <deregister_tm_clones>:
 8048960:	b8 c3 c7 04 08       	mov    $0x804c7c3,%eax
 8048965:	2d c0 c7 04 08       	sub    $0x804c7c0,%eax
 804896a:	83 f8 06             	cmp    $0x6,%eax
 804896d:	77 01                	ja     8048970 <deregister_tm_clones+0x10>
 804896f:	c3                   	ret
 8048970:	b8 00 00 00 00       	mov    $0x0,%eax
 8048975:	85 c0                	test   %eax,%eax
 8048977:	74 f6                	je     804896f <deregister_tm_clones+0xf>
 8048979:	55                   	push   %ebp
 804897a:	89 e5                	mov    %esp,%ebp
 804897c:	83 ec 18             	sub    $0x18,%esp
 804897f:	c7 04 24 c0 c7 04 08 	movl   $0x804c7c0,(%esp)
 8048986:	ff d0                	call   *%eax
 8048988:	c9                   	leave
 8048989:	c3                   	ret
 804898a:	8d b6 00 00 00 00    	lea    0x0(%esi),%esi

08048990 <register_tm_clones>:
 8048990:	b8 c0 c7 04 08       	mov    $0x804c7c0,%eax
 8048995:	2d c0 c7 04 08       	sub    $0x804c7c0,%eax
 804899a:	c1 f8 02             	sar    $0x2,%eax
 804899d:	89 c2                	mov    %eax,%edx
 804899f:	c1 ea 1f             	shr    $0x1f,%edx
 80489a2:	01 d0                	add    %edx,%eax
 80489a4:	d1 f8                	sar    %eax
 80489a6:	75 01                	jne    80489a9 <register_tm_clones+0x19>
 80489a8:	c3                   	ret
 80489a9:	ba 00 00 00 00       	mov    $0x0,%edx
 80489ae:	85 d2                	test   %edx,%edx
 80489b0:	74 f6                	je     80489a8 <register_tm_clones+0x18>
 80489b2:	55                   	push   %ebp
 80489b3:	89 e5                	mov    %esp,%ebp
 80489b5:	83 ec 18             	sub    $0x18,%esp
 80489b8:	89 44 24 04          	mov    %eax,0x4(%esp)
 80489bc:	c7 04 24 c0 c7 04 08 	movl   $0x804c7c0,(%esp)
 80489c3:	ff d2                	call   *%edx
 80489c5:	c9                   	leave
 80489c6:	c3                   	ret
 80489c7:	89 f6                	mov    %esi,%esi
 80489c9:	8d bc 27 00 00 00 00 	lea    0x0(%edi,%eiz,1),%edi

080489d0 <__do_global_dtors_aux>:
 80489d0:	80 3d e4 c7 04 08 00 	cmpb   $0x0,0x804c7e4
 80489d7:	75 13                	jne    80489ec <__do_global_dtors_aux+0x1c>
 80489d9:	55                   	push   %ebp
 80489da:	89 e5                	mov    %esp,%ebp
 80489dc:	83 ec 08             	sub    $0x8,%esp
 80489df:	e8 7c ff ff ff       	call   8048960 <deregister_tm_clones>
 80489e4:	c6 05 e4 c7 04 08 01 	movb   $0x1,0x804c7e4
 80489eb:	c9                   	leave
 80489ec:	f3 c3                	repz ret
 80489ee:	66 90                	xchg   %ax,%ax

080489f0 <frame_dummy>:
 80489f0:	a1 10 bf 04 08       	mov    0x804bf10,%eax
 80489f5:	85 c0                	test   %eax,%eax
 80489f7:	74 1f                	je     8048a18 <frame_dummy+0x28>
 80489f9:	b8 00 00 00 00       	mov    $0x0,%eax
 80489fe:	85 c0                	test   %eax,%eax
 8048a00:	74 16                	je     8048a18 <frame_dummy+0x28>
 8048a02:	55                   	push   %ebp
 8048a03:	89 e5                	mov    %esp,%ebp
 8048a05:	83 ec 18             	sub    $0x18,%esp
 8048a08:	c7 04 24 10 bf 04 08 	movl   $0x804bf10,(%esp)
 8048a0f:	ff d0                	call   *%eax
 8048a11:	c9                   	leave
 8048a12:	e9 79 ff ff ff       	jmp    8048990 <register_tm_clones>
 8048a17:	90                   	nop
 8048a18:	e9 73 ff ff ff       	jmp    8048990 <register_tm_clones>

08048a1d <main>:
 8048a1d:	55                   	push   %ebp
 8048a1e:	89 e5                	mov    %esp,%ebp
 8048a20:	53                   	push   %ebx
 8048a21:	83 e4 f0             	and    $0xfffffff0,%esp
 8048a24:	83 ec 10             	sub    $0x10,%esp
 8048a27:	8b 45 08             	mov    0x8(%ebp),%eax
 8048a2a:	8b 5d 0c             	mov    0xc(%ebp),%ebx
 8048a2d:	83 f8 01             	cmp    $0x1,%eax
 8048a30:	75 0c                	jne    8048a3e <main+0x21>
 8048a32:	a1 c4 c7 04 08       	mov    0x804c7c4,%eax
 8048a37:	a3 ec c7 04 08       	mov    %eax,0x804c7ec
 8048a3c:	eb 74                	jmp    8048ab2 <main+0x95>
 8048a3e:	83 f8 02             	cmp    $0x2,%eax
 8048a41:	75 49                	jne    8048a8c <main+0x6f>
 8048a43:	c7 44 24 04 e8 a1 04 	movl   $0x804a1e8,0x4(%esp)
 8048a4a:	08
 8048a4b:	8b 43 04             	mov    0x4(%ebx),%eax
 8048a4e:	89 04 24             	mov    %eax,(%esp)
 8048a51:	e8 1a fe ff ff       	call   8048870 <fopen@plt>
 8048a56:	a3 ec c7 04 08       	mov    %eax,0x804c7ec
 8048a5b:	85 c0                	test   %eax,%eax
 8048a5d:	75 53                	jne    8048ab2 <main+0x95>
 8048a5f:	8b 43 04             	mov    0x4(%ebx),%eax
 8048a62:	89 44 24 0c          	mov    %eax,0xc(%esp)
 8048a66:	8b 03                	mov    (%ebx),%eax
 8048a68:	89 44 24 08          	mov    %eax,0x8(%esp)
 8048a6c:	c7 44 24 04 ea a1 04 	movl   $0x804a1ea,0x4(%esp)
 8048a73:	08
 8048a74:	c7 04 24 01 00 00 00 	movl   $0x1,(%esp)
 8048a7b:	e8 10 fe ff ff       	call   8048890 <__printf_chk@plt>
 8048a80:	c7 04 24 08 00 00 00 	movl   $0x8,(%esp)
 8048a87:	e8 a4 fd ff ff       	call   8048830 <exit@plt>
 8048a8c:	8b 03                	mov    (%ebx),%eax
 8048a8e:	89 44 24 08          	mov    %eax,0x8(%esp)
 8048a92:	c7 44 24 04 07 a2 04 	movl   $0x804a207,0x4(%esp)
 8048a99:	08
 8048a9a:	c7 04 24 01 00 00 00 	movl   $0x1,(%esp)
 8048aa1:	e8 ea fd ff ff       	call   8048890 <__printf_chk@plt>
 8048aa6:	c7 04 24 08 00 00 00 	movl   $0x8,(%esp)
 8048aad:	e8 7e fd ff ff       	call   8048830 <exit@plt>
 8048ab2:	e8 ff 05 00 00       	call   80490b6 <initialize_bomb>
 8048ab7:	c7 04 24 6c a2 04 08 	movl   $0x804a26c,(%esp)
 8048abe:	e8 2d fd ff ff       	call   80487f0 <puts@plt>
 8048ac3:	c7 04 24 a8 a2 04 08 	movl   $0x804a2a8,(%esp)
 8048aca:	e8 21 fd ff ff       	call   80487f0 <puts@plt>
 8048acf:	e8 80 08 00 00       	call   8049354 <read_line>
 8048ad4:	89 04 24             	mov    %eax,(%esp)
 8048ad7:	e8 b4 00 00 00       	call   8048b90 <phase_1>
 8048adc:	e8 6d 09 00 00       	call   804944e <phase_defused>
 8048ae1:	c7 04 24 d4 a2 04 08 	movl   $0x804a2d4,(%esp)
 8048ae8:	e8 03 fd ff ff       	call   80487f0 <puts@plt>

 8048aed:	e8 62 08 00 00       	call   8049354 <read_line>
 8048af2:	89 04 24             	mov    %eax,(%esp)
 8048af5:	e8 ba 00 00 00       	call   8048bb4 <phase_2>
 8048afa:	e8 4f 09 00 00       	call   804944e <phase_defused>
 8048aff:	c7 04 24 21 a2 04 08 	movl   $0x804a221,(%esp)
 8048b06:	e8 e5 fc ff ff       	call   80487f0 <puts@plt>

 8048b0b:	e8 44 08 00 00       	call   8049354 <read_line>
 8048b10:	89 04 24             	mov    %eax,(%esp)
 8048b13:	e8 ea 00 00 00       	call   8048c02 <phase_3>
 8048b18:	e8 31 09 00 00       	call   804944e <phase_defused>
 8048b1d:	c7 04 24 3f a2 04 08 	movl   $0x804a23f,(%esp)
 8048b24:	e8 c7 fc ff ff       	call   80487f0 <puts@plt>

 8048b29:	e8 26 08 00 00       	call   8049354 <read_line>
 8048b2e:	89 04 24             	mov    %eax,(%esp)
 8048b31:	e8 ec 01 00 00       	call   8048d22 <phase_4>
 8048b36:	e8 13 09 00 00       	call   804944e <phase_defused>
 8048b3b:	c7 04 24 00 a3 04 08 	movl   $0x804a300,(%esp)
 8048b42:	e8 a9 fc ff ff       	call   80487f0 <puts@plt>

 8048b47:	e8 08 08 00 00       	call   8049354 <read_line>
 8048b4c:	89 04 24             	mov    %eax,(%esp)
 8048b4f:	e8 37 02 00 00       	call   8048d8b <phase_5>
 8048b54:	e8 f5 08 00 00       	call   804944e <phase_defused>
 8048b59:	c7 04 24 4e a2 04 08 	movl   $0x804a24e,(%esp)
 8048b60:	e8 8b fc ff ff       	call   80487f0 <puts@plt>

 8048b65:	e8 ea 07 00 00       	call   8049354 <read_line>
 8048b6a:	89 04 24             	mov    %eax,(%esp)
 8048b6d:	e8 8d 02 00 00       	call   8048dff <phase_6>
 8048b72:	e8 d7 08 00 00       	call   804944e <phase_defused>
 8048b77:	b8 00 00 00 00       	mov    $0x0,%eax
 8048b7c:	8b 5d fc             	mov    -0x4(%ebp),%ebx
 8048b7f:	c9                   	leave
 8048b80:	c3                   	ret
 8048b81:	66 90                	xchg   %ax,%ax
 8048b83:	66 90                	xchg   %ax,%ax
 8048b85:	66 90                	xchg   %ax,%ax
 8048b87:	66 90                	xchg   %ax,%ax
 8048b89:	66 90                	xchg   %ax,%ax
 8048b8b:	66 90                	xchg   %ax,%ax
 8048b8d:	66 90                	xchg   %ax,%ax
 8048b8f:	90                   	nop

08048b90 <phase_1>:
 8048b90:	83 ec 1c             	sub    $0x1c,%esp
 8048b93:	c7 44 24 04 24 a3 04 	movl   $0x804a324,0x4(%esp)
 8048b9a:	08
 8048b9b:	8b 44 24 20          	mov    0x20(%esp),%eax
 8048b9f:	89 04 24             	mov    %eax,(%esp)
 8048ba2:	e8 a3 04 00 00       	call   804904a <strings_not_equal>
 8048ba7:	85 c0                	test   %eax,%eax
 8048ba9:	74 05                	je     8048bb0 <phase_1+0x20>
 8048bab:	e8 15 07 00 00       	call   80492c5 <explode_bomb>
 8048bb0:	83 c4 1c             	add    $0x1c,%esp
 8048bb3:	c3                   	ret

08048bb4 <phase_2>:
 8048bb4:	56                   	push   %esi
 8048bb5:	53                   	push   %ebx
 8048bb6:	83 ec 34             	sub    $0x34,%esp

//==
 8048bb9:	8d 44 24 18          	lea    0x18(%esp),%eax
 8048bbd:	89 44 24 04          	mov    %eax,0x4(%esp)

 8048bc1:	8b 44 24 40          	mov    0x40(%esp),%eax
 8048bc5:	89 04 24             	mov    %eax,(%esp)
//==

 8048bc8:	e8 37 07 00 00       	call   8049304 <read_six_numbers>
 8048bcd:	83 7c 24 18 01       	cmpl   $0x1,0x18(%esp)
 8048bd2:	74 1e                	je     8048bf2 <phase_2+0x3e>
 8048bd4:	e8 ec 06 00 00       	call   80492c5 <explode_bomb>
 8048bd9:	eb 17                	jmp    8048bf2 <phase_2+0x3e>
 8048bdb:	8b 43 fc             	mov    -0x4(%ebx),%eax
 8048bde:	01 c0                	add    %eax,%eax
 8048be0:	39 03                	cmp    %eax,(%ebx)
 8048be2:	74 05                	je     8048be9 <phase_2+0x35>
 8048be4:	e8 dc 06 00 00       	call   80492c5 <explode_bomb>
 8048be9:	83 c3 04             	add    $0x4,%ebx
 8048bec:	39 f3                	cmp    %esi,%ebx
 8048bee:	75 eb                	jne    8048bdb <phase_2+0x27>
 8048bf0:	eb 0a                	jmp    8048bfc <phase_2+0x48>
 8048bf2:	8d 5c 24 1c          	lea    0x1c(%esp),%ebx
 8048bf6:	8d 74 24 30          	lea    0x30(%esp),%esi
 8048bfa:	eb df                	jmp    8048bdb <phase_2+0x27>
 8048bfc:	83 c4 34             	add    $0x34,%esp
 8048bff:	5b                   	pop    %ebx
 8048c00:	5e                   	pop    %esi
 8048c01:	c3                   	ret

08048c02 <phase_3>:
 8048c02:	83 ec 2c             	sub    $0x2c,%esp

// ===
 8048c05:	8d 44 24 1c          	lea    0x1c(%esp),%eax			// a pointer on stack
 8048c09:	89 44 24 0c          	mov    %eax,0xc(%esp)

 8048c0d:	8d 44 24 18          	lea    0x18(%esp),%eax			// a pointer on stack
 8048c11:	89 44 24 08          	mov    %eax,0x8(%esp)

 8048c15:	c7 44 24 04 b1 a5 04 	movl   $0x804a5b1,0x4(%esp)
 8048c1d:	8b 44 24 30          	mov    0x30(%esp),%eax			// parameter from phase3

 8048c21:	89 04 24             	mov    %eax,(%esp)
// ===

 8048c24:	e8 37 fc ff ff       	call   8048860 <__isoc99_sscanf@plt>
 8048c29:	83 f8 01             	cmp    $0x1,%eax
 8048c2c:	7f 05                	jg     8048c33 <phase_3+0x31>
 8048c2e:	e8 92 06 00 00       	call   80492c5 <explode_bomb>

 8048c33:	83 7c 24 18 07       	cmpl   $0x7,0x18(%esp)
 8048c38:	77 66                	ja     8048ca0 <phase_3+0x9e>    boom

 8048c3a:	8b 44 24 18          	mov    0x18(%esp),%eax
 8048c3e:	ff 24 85 80 a3 04 08 	jmp    *0x804a380(,%eax,4)
 8048c45:	b8 00 00 00 00       	mov    $0x0,%eax
 8048c4a:	eb 05                	jmp    8048c51 <phase_3+0x4f>
 8048c4c:	b8 c1 03 00 00       	mov    $0x3c1,%eax
 8048c51:	2d 3c 02 00 00       	sub    $0x23c,%eax
 8048c56:	eb 05                	jmp    8048c5d <phase_3+0x5b>
 8048c58:	b8 00 00 00 00       	mov    $0x0,%eax
 8048c5d:	05 a4 01 00 00       	add    $0x1a4,%eax
 8048c62:	eb 05                	jmp    8048c69 <phase_3+0x67>
 8048c64:	b8 00 00 00 00       	mov    $0x0,%eax
 8048c69:	2d 41 01 00 00       	sub    $0x141,%eax
 8048c6e:	eb 05                	jmp    8048c75 <phase_3+0x73>
 8048c70:	b8 00 00 00 00       	mov    $0x0,%eax
 8048c75:	05 41 01 00 00       	add    $0x141,%eax
 8048c7a:	eb 05                	jmp    8048c81 <phase_3+0x7f>
 8048c7c:	b8 00 00 00 00       	mov    $0x0,%eax
 8048c81:	2d 41 01 00 00       	sub    $0x141,%eax
 8048c86:	eb 05                	jmp    8048c8d <phase_3+0x8b>
 8048c88:	b8 00 00 00 00       	mov    $0x0,%eax
 8048c8d:	05 41 01 00 00       	add    $0x141,%eax
 8048c92:	eb 05                	jmp    8048c99 <phase_3+0x97>
 8048c94:	b8 00 00 00 00       	mov    $0x0,%eax
 8048c99:	2d 41 01 00 00       	sub    $0x141,%eax
 8048c9e:	eb 0a                	jmp    8048caa <phase_3+0xa8>

 8048ca0:	e8 20 06 00 00       	call   80492c5 <explode_bomb>

 8048ca5:	b8 00 00 00 00       	mov    $0x0,%eax
 8048caa:	83 7c 24 18 05       	cmpl   $0x5,0x18(%esp)			// first num
 8048caf:	7f 06                	jg     8048cb7 <phase_3+0xb5>

 8048cb1:	3b 44 24 1c          	cmp    0x1c(%esp),%eax			// second num
 8048cb5:	74 05                	je     8048cbc <phase_3+0xba>

 8048cb7:	e8 09 06 00 00       	call   80492c5 <explode_bomb>
 8048cbc:	83 c4 2c             	add    $0x2c,%esp
 8048cbf:	90                   	nop
 8048cc0:	c3                   	ret

08048cc1 <func4>:
 8048cc1:	56                   	push   %esi
 8048cc2:	53                   	push   %ebx
 8048cc3:	83 ec 14             	sub    $0x14,%esp
 8048cc6:	8b 54 24 20          	mov    0x20(%esp),%edx
 8048cca:	8b 44 24 24          	mov    0x24(%esp),%eax
 8048cce:	8b 5c 24 28          	mov    0x28(%esp),%ebx

 8048cd2:	89 d9                	mov    %ebx,%ecx
 8048cd4:	29 c1                	sub    %eax,%ecx
 8048cd6:	89 ce                	mov    %ecx,%esi
 8048cd8:	c1 ee 1f             	shr    $0x1f,%esi
 8048cdb:	01 f1                	add    %esi,%ecx
 8048cdd:	d1 f9                	sar    %ecx
 8048cdf:	01 c1                	add    %eax,%ecx

 8048ce1:	39 d1                	cmp    %edx,%ecx
 8048ce3:   7e 17                   jle    8048cfc <func4+0x3b>
 8048ce5:	83 e9 01             	sub    $0x1,%ecx

 // call (greater than)
 8048ce8:	89 4c 24 08          	mov    %ecx,0x8(%esp)
 8048cec:	89 44 24 04          	mov    %eax,0x4(%esp)
 8048cf0:	89 14 24             	mov    %edx,(%esp)
 8048cf3:	e8 c9 ff ff ff       	call   8048cc1 <func4>

 8048cf8:	01 c0                	add    %eax,%eax
 8048cfa:	eb 20                	jmp    8048d1c <func4+0x5b>

 8048cfc:	b8 00 00 00 00       	mov    $0x0,%eax
 8048d01:	39 d1                	cmp    %edx,%ecx
 8048d03:	7d 17                	jge    8048d1c <func4+0x5b>

// call (less than)
 8048d05:	89 5c 24 08          	mov    %ebx,0x8(%esp)
 8048d09:	83 c1 01             	add    $0x1,%ecx
 8048d0c:	89 4c 24 04          	mov    %ecx,0x4(%esp)
 8048d10:	89 14 24             	mov    %edx,(%esp)
 8048d13:	e8 a9 ff ff ff       	call   8048cc1 <func4>

 8048d18:	8d 44 00 01          	lea    0x1(%eax,%eax,1),%eax

// equal
 8048d1c:	83 c4 14             	add    $0x14,%esp
 8048d1f:	5b                   	pop    %ebx
 8048d20:	5e                   	pop    %esi
 8048d21:	c3                   	ret

08048d22 <phase_4>:
 8048d22:	83 ec 2c             	sub    $0x2c,%esp

//==
 8048d25:	8d 44 24 1c          	lea    0x1c(%esp),%eax
 8048d29:	89 44 24 0c          	mov    %eax,0xc(%esp)

 8048d2d:	8d 44 24 18          	lea    0x18(%esp),%eax
 8048d31:	89 44 24 08          	mov    %eax,0x8(%esp)
//==

 8048d35:	c7 44 24 04 b1 a5 04 	movl   $0x804a5b1,0x4(%esp)
 8048d3c:	08
 8048d3d:	8b 44 24 30          	mov    0x30(%esp),%eax			// parameter
 8048d41:	89 04 24             	mov    %eax,(%esp)
 8048d44:	e8 17 fb ff ff       	call   8048860 <__isoc99_sscanf@plt>

 8048d49:	83 f8 02             	cmp    $0x2,%eax
 8048d4c:	75 07                	jne    8048d55 <phase_4+0x33>

 8048d4e:	83 7c 24 18 0e       	cmpl   $0xe,0x18(%esp)
 8048d53:	76 05                	jbe    8048d5a <phase_4+0x38>	// a <= 0xe
 8048d55:	e8 6b 05 00 00       	call   80492c5 <explode_bomb>

 8048d5a:	c7 44 24 08 0e 00 00 	movl   $0xe,0x8(%esp)
 8048d61:	00
 8048d62:	c7 44 24 04 00 00 00 	movl   $0x0,0x4(%esp)
 8048d69:	00
 8048d6a:	8b 44 24 18          	mov    0x18(%esp),%eax
 8048d6e:	89 04 24             	mov    %eax,(%esp)
 8048d71:	e8 4b ff ff ff       	call   8048cc1 <func4>

 8048d76:	83 f8 06             	cmp    $0x6,%eax
 8048d79:	75 07                	jne    8048d82 <phase_4+0x60>
 8048d7b:	83 7c 24 1c 06       	cmpl   $0x6,0x1c(%esp)
 8048d80:	74 05                	je     8048d87 <phase_4+0x65>
 8048d82:	e8 3e 05 00 00       	call   80492c5 <explode_bomb>

 8048d87:	83 c4 2c             	add    $0x2c,%esp
 8048d8a:	c3                   	ret

08048d8b <phase_5>:
 8048d8b:	83 ec 2c             	sub    $0x2c,%esp

//==
 8048d8e:	8d 44 24 1c          	lea    0x1c(%esp),%eax
 8048d92:	89 44 24 0c          	mov    %eax,0xc(%esp)

 8048d96:	8d 44 24 18          	lea    0x18(%esp),%eax
 8048d9a:	89 44 24 08          	mov    %eax,0x8(%esp)

 8048d9e:	c7 44 24 04 b1 a5 04 	movl   $0x804a5b1,0x4(%esp)
 8048da5:	08

 8048da6:	8b 44 24 30          	mov    0x30(%esp),%eax
 8048daa:	89 04 24             	mov    %eax,(%esp)
//==

 8048dad:	e8 ae fa ff ff       	call   8048860 <__isoc99_sscanf@plt>
 8048db2:	83 f8 01             	cmp    $0x1,%eax
 8048db5:	7f 05                	jg     8048dbc <phase_5+0x31>
 8048db7:	e8 09 05 00 00       	call   80492c5 <explode_bomb>


 8048dbc:	8b 44 24 18          	mov    0x18(%esp),%eax
 8048dc0:	83 e0 0f             	and    $0xf,%eax
 8048dc3:	89 44 24 18          	mov    %eax,0x18(%esp)
 8048dc7:	83 f8 0f             	cmp    $0xf,%eax
 8048dca:	74 2a                	je     8048df6 <phase_5+0x6b>   // BOOM

 8048dcc:	b9 00 00 00 00       	mov    $0x0,%ecx
 8048dd1:	ba 00 00 00 00       	mov    $0x0,%edx

 8048dd6:	83 c2 01             	add    $0x1,%edx				// L1
 8048dd9:	8b 04 85 a0 a3 04 08 	mov    0x804a3a0(,%eax,4),%eax

 8048de0:	01 c1                	add    %eax,%ecx
 8048de2:	83 f8 0f             	cmp    $0xf,%eax
 8048de5:	75 ef                	jne    8048dd6 <phase_5+0x4b>	// jne L1

 8048de7:	89 44 24 18          	mov    %eax,0x18(%esp)
 8048deb:	83 fa 0f             	cmp    $0xf,%edx				//
 8048dee:	75 06                	jne    8048df6 <phase_5+0x6b>

 8048df0:	3b 4c 24 1c          	cmp    0x1c(%esp),%ecx
 8048df4:	74 05                	je     8048dfb <phase_5+0x70>

 8048df6:	e8 ca 04 00 00       	call   80492c5 <explode_bomb>

 8048dfb:	83 c4 2c             	add    $0x2c,%esp
 8048dfe:	c3                   	ret

08048dff <phase_6>:
 8048dff:	56                   	push   %esi
 8048e00:	53                   	push   %ebx
 8048e01:	83 ec 44             	sub    $0x44,%esp

//==
 8048e04:	8d 44 24 10          	lea    0x10(%esp),%eax
 8048e08:	89 44 24 04          	mov    %eax,0x4(%esp)			// address

 8048e0c:	8b 44 24 50          	mov    0x50(%esp),%eax
 8048e10:	89 04 24             	mov    %eax,(%esp)				// input
//==
 8048e13:	e8 ec 04 00 00       	call   8049304 <read_six_numbers>

 8048e18:	be 00 00 00 00       	mov    $0x0,%esi				// esi = 0

L2:
 8048e1d:	8b 44 b4 10          	mov    0x10(%esp,%esi,4),%eax	// input [esi] -> eax
 8048e21:	83 e8 01             	sub    $0x1,%eax				// eax -= 1
 8048e24:	83 f8 05             	cmp    $0x5,%eax				// eax ? 5
 8048e27:	76 05                	jbe    8048e2e <phase_6+0x2f>	// eax <= 5,  					===> input[0] <= 6

 8048e29:	e8 97 04 00 00       	call   80492c5 <explode_bomb>

 8048e2e:	83 c6 01             	add    $0x1,%esi				// esi += 1
 8048e31:	83 fe 06             	cmp    $0x6,%esi				// esi ? 6
 8048e34:	74 1c                	je     8048e52 <phase_6+0x53>	// esi == 6,	jmp end1

																//esi!=6 loop, starting with 1
 8048e36:	89 f3                	mov    %esi,%ebx				// esi -> ebx
L1:
 8048e38:	8b 44 9c 10          	mov    0x10(%esp,%ebx,4),%eax	// inpt[ebx] -> eax
 8048e3c:	39 44 b4 0c          	cmp    %eax,0xc(%esp,%esi,4)	// eax ? input[esi - 1]
 8048e40:	75 05                	jne    8048e47 <phase_6+0x48>	// 								===> input[m-1] != input[m-1]

 8048e42:	e8 7e 04 00 00       	call   80492c5 <explode_bomb>

 8048e47:	83 c3 01             	add    $0x1,%ebx				// ebx += 1
 8048e4a:	83 fb 05             	cmp    $0x5,%ebx				// ebx ? 5
 8048e4d:	7e e9                	jle    8048e38 <phase_6+0x39>	// ebx <= 5, jmp L1
 8048e4f:	90                   	nop
 8048e50:	eb cb                	jmp    8048e1d <phase_6+0x1e>	// ebx > 5 jmp L2				==> input[i] != input[j]

//===
end1:
 8048e52:	8d 44 24 10          	lea    0x10(%esp),%eax			// input	-> eax
 8048e56:	8d 5c 24 28          	lea    0x28(%esp),%ebx			// input + 6 -> ebx (over tail)
 8048e5a:	b9 07 00 00 00       	mov    $0x7,%ecx				// 7-> ecx

loop_S:
 8048e5f:	89 ca                	mov    %ecx,%edx				// ecx -> edx
 8048e61:	2b 10                	sub    (%eax),%edx				// edx -= *eax
 8048e63:	89 10                	mov    %edx,(%eax)				// edx -> *eax
 8048e65:	83 c0 04             	add    $0x4,%eax				// eax += sizeof(int)
 8048e68:	39 d8                	cmp    %ebx,%eax				// eax ? ebx
 8048e6a:	75 f3                	jne    8048e5f <phase_6+0x60>	// loop 						==> for index,i in tab: 7-i -> tab[index]

//===
 8048e6c:	bb 00 00 00 00       	mov    $0x0,%ebx				// 0 -> ebx
 8048e71:	eb 1d                	jmp    8048e90 <phase_6+0x91>	// jmp L4

L7:																					==========> tab[i+6] = & structtab[i]
 8048e73:	8b 52 08             	mov    0x8(%edx),%edx			// *(edx+8) -> edx		edx(struct).next -> edx
 8048e76:	83 c0 01             	add    $0x1,%eax				// eax += 1 (eax = 2)	|
 8048e79:	39 c8                	cmp    %ecx,%eax				// ecx ? eax			|
 8048e7b:	75 f6                	jne    8048e73 <phase_6+0x74>	// !=, jmp L7			|--> add till eax = input[ebx]
 8048e7d:	eb 05                	jmp    8048e84 <phase_6+0x85>	// jmp L9

	L5:
	 8048e7f:	ba 54 c1 04 08       	mov    $0x804c154,%edx			// structtab(head pointer) -> edx
	L9:
	 8048e84:	89 54 b4 28          	mov    %edx,0x28(%esp,%esi,4)	// edx ->  input[6+esi]
	 8048e88:	83 c3 01             	add    $0x1,%ebx				// ebx += 1
	 8048e8b:	83 fb 06             	cmp    $0x6,%ebx				// ebx ? 6
	 8048e8e:	74 17                	je     8048ea7 <phase_6+0xa8>	// ==, end

	L4:
	 8048e90:	89 de                	mov    %ebx,%esi				// ebx -> esi
	 8048e92:	8b 4c 9c 10          	mov    0x10(%esp,%ebx,4),%ecx	// input[ebx] -> ecx
	 8048e96:	83 f9 01             	cmp    $0x1,%ecx				// ecx ? 1
	 8048e99:	7e e4                	jle    8048e7f <phase_6+0x80>	// <=, jmp L5		==> input [ebx] == 0,1 then loop L5

L6:
 8048e9b:	b8 01 00 00 00       	mov    $0x1,%eax				// 1->eax
 8048ea0:	ba 54 c1 04 08       	mov    $0x804c154,%edx			// structtab -> edx			==> 12 bytes per struct{id, val, *next}
 8048ea5:	eb cc                	jmp    8048e73 <phase_6+0x74>	// loop L7
end:

//==
 8048ea7:	8b 5c 24 28          	mov    0x28(%esp),%ebx			// tab[6] -> ebx
 8048eab:	8d 44 24 2c          	lea    0x2c(%esp),%eax			// tab+7 -> eax
 8048eaf:	8d 74 24 40          	lea    0x40(%esp),%esi			// tab+12 -> esi (tail)

 8048eb3:	89 d9                	mov    %ebx,%ecx				// ebx->ecx
L1:
 8048eb5:	8b 10                	mov    (%eax),%edx				// *eax -> edx		|
 8048eb7:	89 51 08             	mov    %edx,0x8(%ecx)			// edx->*(ecx+8)	|
 8048eba:	83 c0 04             	add    $0x4,%eax				// eax = eax + 1	|
 8048ebd:	39 f0                	cmp    %esi,%eax				// eax ? esi		|
 8048ebf:	74 04                	je     8048ec5 <phase_6+0xc6>	// end				|
 8048ec1:	89 d1                	mov    %edx,%ecx				// edx -> ecx		|

 8048ec3:	eb f0                	jmp    8048eb5 <phase_6+0xb6>	// jmp L1			| -> re-link(tab[i-1]->next = tab[i] from 7 to 11)

//==
 8048ec5:	c7 42 08 00 00 00 00 	movl   $0x0,0x8(%edx)
 8048ecc:	be 05 00 00 00       	mov    $0x5,%esi

 8048ed1:	8b 43 08             	mov    0x8(%ebx),%eax
 8048ed4:	8b 00                	mov    (%eax),%eax
 8048ed6:	39 03                	cmp    %eax,(%ebx)
 8048ed8:	7d 05                	jge    8048edf <phase_6+0xe0>	// eax >= (ebx)

 8048eda:	e8 e6 03 00 00       	call   80492c5 <explode_bomb>

 8048edf:	8b 5b 08             	mov    0x8(%ebx),%ebx
 8048ee2:	83 ee 01             	sub    $0x1,%esi
 8048ee5:	75 ea                	jne    8048ed1 <phase_6+0xd2>
 8048ee7:	83 c4 44             	add    $0x44,%esp

 8048eea:	5b                   	pop    %ebx
 8048eeb:	5e                   	pop    %esi
 8048eec:	c3                   	ret

08048eed <fun7>:
 8048eed:	53                   	push   %ebx
 8048eee:	83 ec 18             	sub    $0x18,%esp
 8048ef1:	8b 54 24 20          	mov    0x20(%esp),%edx
 8048ef5:	8b 4c 24 24          	mov    0x24(%esp),%ecx
 8048ef9:	85 d2                	test   %edx,%edx
 8048efb:	74 37                	je     8048f34 <fun7+0x47>
 8048efd:	8b 1a                	mov    (%edx),%ebx
 8048eff:	39 cb                	cmp    %ecx,%ebx
 8048f01:	7e 13                	jle    8048f16 <fun7+0x29>
 8048f03:	89 4c 24 04          	mov    %ecx,0x4(%esp)
 8048f07:	8b 42 04             	mov    0x4(%edx),%eax
 8048f0a:	89 04 24             	mov    %eax,(%esp)
 8048f0d:	e8 db ff ff ff       	call   8048eed <fun7>
 8048f12:	01 c0                	add    %eax,%eax
 8048f14:	eb 23                	jmp    8048f39 <fun7+0x4c>
 8048f16:	b8 00 00 00 00       	mov    $0x0,%eax
 8048f1b:	39 cb                	cmp    %ecx,%ebx
 8048f1d:	74 1a                	je     8048f39 <fun7+0x4c>
 8048f1f:	89 4c 24 04          	mov    %ecx,0x4(%esp)
 8048f23:	8b 42 08             	mov    0x8(%edx),%eax
 8048f26:	89 04 24             	mov    %eax,(%esp)
 8048f29:	e8 bf ff ff ff       	call   8048eed <fun7>
 8048f2e:	8d 44 00 01          	lea    0x1(%eax,%eax,1),%eax
 8048f32:	eb 05                	jmp    8048f39 <fun7+0x4c>
 8048f34:	b8 ff ff ff ff       	mov    $0xffffffff,%eax
 8048f39:	83 c4 18             	add    $0x18,%esp
 8048f3c:	5b                   	pop    %ebx
 8048f3d:	c3                   	ret

08048f3e <secret_phase>:
 8048f3e:	53                   	push   %ebx
 8048f3f:	83 ec 18             	sub    $0x18,%esp
 8048f42:	e8 0d 04 00 00       	call   8049354 <read_line>
 8048f47:	c7 44 24 08 0a 00 00 	movl   $0xa,0x8(%esp)
 8048f4e:	00
 8048f4f:	c7 44 24 04 00 00 00 	movl   $0x0,0x4(%esp)
 8048f56:	00
 8048f57:	89 04 24             	mov    %eax,(%esp)
 8048f5a:	e8 71 f9 ff ff       	call   80488d0 <strtol@plt>
 8048f5f:	89 c3                	mov    %eax,%ebx
 8048f61:	8d 40 ff             	lea    -0x1(%eax),%eax
 8048f64:	3d e8 03 00 00       	cmp    $0x3e8,%eax
 8048f69:	76 05                	jbe    8048f70 <secret_phase+0x32>
 8048f6b:	e8 55 03 00 00       	call   80492c5 <explode_bomb>
 8048f70:	89 5c 24 04          	mov    %ebx,0x4(%esp)
 8048f74:	c7 04 24 a0 c0 04 08 	movl   $0x804c0a0,(%esp)
 8048f7b:	e8 6d ff ff ff       	call   8048eed <fun7>
 8048f80:	85 c0                	test   %eax,%eax
 8048f82:	74 05                	je     8048f89 <secret_phase+0x4b>
 8048f84:	e8 3c 03 00 00       	call   80492c5 <explode_bomb>
 8048f89:	c7 04 24 58 a3 04 08 	movl   $0x804a358,(%esp)
 8048f90:	e8 5b f8 ff ff       	call   80487f0 <puts@plt>
 8048f95:	e8 b4 04 00 00       	call   804944e <phase_defused>
 8048f9a:	83 c4 18             	add    $0x18,%esp
 8048f9d:	5b                   	pop    %ebx
 8048f9e:	c3                   	ret
 8048f9f:	90                   	nop

08048fa0 <sig_handler>:
 8048fa0:	83 ec 1c             	sub    $0x1c,%esp
 8048fa3:	c7 04 24 e0 a3 04 08 	movl   $0x804a3e0,(%esp)
 8048faa:	e8 41 f8 ff ff       	call   80487f0 <puts@plt>
 8048faf:	c7 04 24 03 00 00 00 	movl   $0x3,(%esp)
 8048fb6:	e8 e5 f7 ff ff       	call   80487a0 <sleep@plt>
 8048fbb:	c7 44 24 04 2d a5 04 	movl   $0x804a52d,0x4(%esp)
 8048fc2:	08
 8048fc3:	c7 04 24 01 00 00 00 	movl   $0x1,(%esp)
 8048fca:	e8 c1 f8 ff ff       	call   8048890 <__printf_chk@plt>
 8048fcf:	a1 e0 c7 04 08       	mov    0x804c7e0,%eax
 8048fd4:	89 04 24             	mov    %eax,(%esp)
 8048fd7:	e8 94 f7 ff ff       	call   8048770 <fflush@plt>
 8048fdc:	c7 04 24 01 00 00 00 	movl   $0x1,(%esp)
 8048fe3:	e8 b8 f7 ff ff       	call   80487a0 <sleep@plt>
 8048fe8:	c7 04 24 35 a5 04 08 	movl   $0x804a535,(%esp)
 8048fef:	e8 fc f7 ff ff       	call   80487f0 <puts@plt>
 8048ff4:	c7 04 24 10 00 00 00 	movl   $0x10,(%esp)
 8048ffb:	e8 30 f8 ff ff       	call   8048830 <exit@plt>

08049000 <invalid_phase>:
 8049000:	83 ec 1c             	sub    $0x1c,%esp
 8049003:	8b 44 24 20          	mov    0x20(%esp),%eax
 8049007:	89 44 24 08          	mov    %eax,0x8(%esp)
 804900b:	c7 44 24 04 3d a5 04 	movl   $0x804a53d,0x4(%esp)
 8049012:	08
 8049013:	c7 04 24 01 00 00 00 	movl   $0x1,(%esp)
 804901a:	e8 71 f8 ff ff       	call   8048890 <__printf_chk@plt>
 804901f:	c7 04 24 08 00 00 00 	movl   $0x8,(%esp)
 8049026:	e8 05 f8 ff ff       	call   8048830 <exit@plt>

0804902b <string_length>:
 804902b:	8b 54 24 04          	mov    0x4(%esp),%edx
 804902f:	80 3a 00             	cmpb   $0x0,(%edx)
 8049032:	74 10                	je     8049044 <string_length+0x19>
 8049034:	b8 00 00 00 00       	mov    $0x0,%eax
 8049039:	83 c0 01             	add    $0x1,%eax
 804903c:	80 3c 02 00          	cmpb   $0x0,(%edx,%eax,1)
 8049040:	75 f7                	jne    8049039 <string_length+0xe>
 8049042:	f3 c3                	repz ret
 8049044:	b8 00 00 00 00       	mov    $0x0,%eax
 8049049:	c3                   	ret

0804904a <strings_not_equal>:
 804904a:	57                   	push   %edi
 804904b:	56                   	push   %esi
 804904c:	53                   	push   %ebx
 804904d:	83 ec 04             	sub    $0x4,%esp
 8049050:	8b 5c 24 14          	mov    0x14(%esp),%ebx
 8049054:	8b 74 24 18          	mov    0x18(%esp),%esi
 8049058:	89 1c 24             	mov    %ebx,(%esp)
 804905b:	e8 cb ff ff ff       	call   804902b <string_length>
 8049060:	89 c7                	mov    %eax,%edi
 8049062:	89 34 24             	mov    %esi,(%esp)
 8049065:	e8 c1 ff ff ff       	call   804902b <string_length>
 804906a:	ba 01 00 00 00       	mov    $0x1,%edx
 804906f:	39 c7                	cmp    %eax,%edi
 8049071:	75 3a                	jne    80490ad <strings_not_equal+0x63>
 8049073:	0f b6 03             	movzbl (%ebx),%eax
 8049076:	84 c0                	test   %al,%al
 8049078:	74 20                	je     804909a <strings_not_equal+0x50>
 804907a:	3a 06                	cmp    (%esi),%al
 804907c:	74 08                	je     8049086 <strings_not_equal+0x3c>
 804907e:	66 90                	xchg   %ax,%ax
 8049080:	eb 1f                	jmp    80490a1 <strings_not_equal+0x57>
 8049082:	3a 06                	cmp    (%esi),%al
 8049084:	75 22                	jne    80490a8 <strings_not_equal+0x5e>
 8049086:	83 c3 01             	add    $0x1,%ebx
 8049089:	83 c6 01             	add    $0x1,%esi
 804908c:	0f b6 03             	movzbl (%ebx),%eax
 804908f:	84 c0                	test   %al,%al
 8049091:	75 ef                	jne    8049082 <strings_not_equal+0x38>
 8049093:	ba 00 00 00 00       	mov    $0x0,%edx
 8049098:	eb 13                	jmp    80490ad <strings_not_equal+0x63>
 804909a:	ba 00 00 00 00       	mov    $0x0,%edx
 804909f:	eb 0c                	jmp    80490ad <strings_not_equal+0x63>
 80490a1:	ba 01 00 00 00       	mov    $0x1,%edx
 80490a6:	eb 05                	jmp    80490ad <strings_not_equal+0x63>
 80490a8:	ba 01 00 00 00       	mov    $0x1,%edx
 80490ad:	89 d0                	mov    %edx,%eax
 80490af:	83 c4 04             	add    $0x4,%esp
 80490b2:	5b                   	pop    %ebx
 80490b3:	5e                   	pop    %esi
 80490b4:	5f                   	pop    %edi
 80490b5:	c3                   	ret

080490b6 <initialize_bomb>:
 80490b6:	81 ec 2c 20 00 00    	sub    $0x202c,%esp
 80490bc:	65 a1 14 00 00 00    	mov    %gs:0x14,%eax
 80490c2:	89 84 24 1c 20 00 00 	mov    %eax,0x201c(%esp)
 80490c9:	31 c0                	xor    %eax,%eax
 80490cb:	c7 44 24 04 a0 8f 04 	movl   $0x8048fa0,0x4(%esp)
 80490d2:	08
 80490d3:	c7 04 24 02 00 00 00 	movl   $0x2,(%esp)
 80490da:	e8 b1 f6 ff ff       	call   8048790 <signal@plt>
 80490df:	8d 44 24 1c          	lea    0x1c(%esp),%eax
 80490e3:	89 04 24             	mov    %eax,(%esp)
 80490e6:	e8 b3 0d 00 00       	call   8049e9e <init_driver>
 80490eb:	85 c0                	test   %eax,%eax
 80490ed:	79 28                	jns    8049117 <initialize_bomb+0x61>
 80490ef:	8d 44 24 1c          	lea    0x1c(%esp),%eax
 80490f3:	89 44 24 08          	mov    %eax,0x8(%esp)
 80490f7:	c7 44 24 04 4e a5 04 	movl   $0x804a54e,0x4(%esp)
 80490fe:	08
 80490ff:	c7 04 24 01 00 00 00 	movl   $0x1,(%esp)
 8049106:	e8 85 f7 ff ff       	call   8048890 <__printf_chk@plt>
 804910b:	c7 04 24 08 00 00 00 	movl   $0x8,(%esp)
 8049112:	e8 19 f7 ff ff       	call   8048830 <exit@plt>
 8049117:	8b 84 24 1c 20 00 00 	mov    0x201c(%esp),%eax
 804911e:	65 33 05 14 00 00 00 	xor    %gs:0x14,%eax
 8049125:	74 05                	je     804912c <initialize_bomb+0x76>
 8049127:	e8 94 f6 ff ff       	call   80487c0 <__stack_chk_fail@plt>
 804912c:	81 c4 2c 20 00 00    	add    $0x202c,%esp
 8049132:	c3                   	ret

08049133 <initialize_bomb_solve>:
 8049133:	f3 c3                	repz ret

08049135 <blank_line>:
 8049135:	56                   	push   %esi
 8049136:	53                   	push   %ebx
 8049137:	83 ec 04             	sub    $0x4,%esp
 804913a:	8b 5c 24 10          	mov    0x10(%esp),%ebx
 804913e:	eb 16                	jmp    8049156 <blank_line+0x21>
 8049140:	e8 bb f7 ff ff       	call   8048900 <__ctype_b_loc@plt>
 8049145:	83 c3 01             	add    $0x1,%ebx
 8049148:	89 f2                	mov    %esi,%edx
 804914a:	0f be f2             	movsbl %dl,%esi
 804914d:	8b 00                	mov    (%eax),%eax
 804914f:	f6 44 70 01 20       	testb  $0x20,0x1(%eax,%esi,2)
 8049154:	74 10                	je     8049166 <blank_line+0x31>
 8049156:	0f b6 33             	movzbl (%ebx),%esi
 8049159:	89 f0                	mov    %esi,%eax
 804915b:	84 c0                	test   %al,%al
 804915d:	75 e1                	jne    8049140 <blank_line+0xb>
 804915f:	b8 01 00 00 00       	mov    $0x1,%eax
 8049164:	eb 05                	jmp    804916b <blank_line+0x36>
 8049166:	b8 00 00 00 00       	mov    $0x0,%eax
 804916b:	83 c4 04             	add    $0x4,%esp
 804916e:	5b                   	pop    %ebx
 804916f:	5e                   	pop    %esi
 8049170:	c3                   	ret

08049171 <skip>:
 8049171:	53                   	push   %ebx
 8049172:	83 ec 18             	sub    $0x18,%esp
 8049175:	a1 ec c7 04 08       	mov    0x804c7ec,%eax
 804917a:	89 44 24 08          	mov    %eax,0x8(%esp)
 804917e:	c7 44 24 04 50 00 00 	movl   $0x50,0x4(%esp)
 8049185:	00
 8049186:	a1 e8 c7 04 08       	mov    0x804c7e8,%eax
 804918b:	8d 04 80             	lea    (%eax,%eax,4),%eax
 804918e:	c1 e0 04             	shl    $0x4,%eax
 8049191:	05 00 c8 04 08       	add    $0x804c800,%eax
 8049196:	89 04 24             	mov    %eax,(%esp)
 8049199:	e8 e2 f5 ff ff       	call   8048780 <fgets@plt>
 804919e:	89 c3                	mov    %eax,%ebx
 80491a0:	85 c0                	test   %eax,%eax
 80491a2:	74 0c                	je     80491b0 <skip+0x3f>
 80491a4:	89 04 24             	mov    %eax,(%esp)
 80491a7:	e8 89 ff ff ff       	call   8049135 <blank_line>
 80491ac:	85 c0                	test   %eax,%eax
 80491ae:	75 c5                	jne    8049175 <skip+0x4>
 80491b0:	89 d8                	mov    %ebx,%eax
 80491b2:	83 c4 18             	add    $0x18,%esp
 80491b5:	5b                   	pop    %ebx
 80491b6:	c3                   	ret

080491b7 <send_msg>:
 80491b7:	57                   	push   %edi
 80491b8:	53                   	push   %ebx
 80491b9:	81 ec 34 40 00 00    	sub    $0x4034,%esp
 80491bf:	65 a1 14 00 00 00    	mov    %gs:0x14,%eax
 80491c5:	89 84 24 2c 40 00 00 	mov    %eax,0x402c(%esp)
 80491cc:	31 c0                	xor    %eax,%eax
 80491ce:	8b 15 e8 c7 04 08    	mov    0x804c7e8,%edx
 80491d4:	8d 5c 92 fb          	lea    -0x5(%edx,%edx,4),%ebx
 80491d8:	c1 e3 04             	shl    $0x4,%ebx
 80491db:	81 c3 00 c8 04 08    	add    $0x804c800,%ebx
 80491e1:	89 df                	mov    %ebx,%edi
 80491e3:	b9 ff ff ff ff       	mov    $0xffffffff,%ecx
 80491e8:	f2 ae                	repnz scas %es:(%edi),%al
 80491ea:	f7 d1                	not    %ecx
 80491ec:	83 c1 63             	add    $0x63,%ecx
 80491ef:	81 f9 00 20 00 00    	cmp    $0x2000,%ecx
 80491f5:	76 20                	jbe    8049217 <send_msg+0x60>
 80491f7:	c7 44 24 04 18 a4 04 	movl   $0x804a418,0x4(%esp)
 80491fe:	08
 80491ff:	c7 04 24 01 00 00 00 	movl   $0x1,(%esp)
 8049206:	e8 85 f6 ff ff       	call   8048890 <__printf_chk@plt>
 804920b:	c7 04 24 08 00 00 00 	movl   $0x8,(%esp)
 8049212:	e8 19 f6 ff ff       	call   8048830 <exit@plt>
 8049217:	83 bc 24 40 40 00 00 	cmpl   $0x0,0x4040(%esp)
 804921e:	00
 804921f:	b8 68 a5 04 08       	mov    $0x804a568,%eax
 8049224:	b9 70 a5 04 08       	mov    $0x804a570,%ecx
 8049229:	0f 44 c1             	cmove  %ecx,%eax
 804922c:	89 5c 24 1c          	mov    %ebx,0x1c(%esp)
 8049230:	89 54 24 18          	mov    %edx,0x18(%esp)
 8049234:	89 44 24 14          	mov    %eax,0x14(%esp)
 8049238:	a1 a0 c5 04 08       	mov    0x804c5a0,%eax
 804923d:	89 44 24 10          	mov    %eax,0x10(%esp)
 8049241:	c7 44 24 0c 79 a5 04 	movl   $0x804a579,0xc(%esp)
 8049248:	08
 8049249:	c7 44 24 08 00 20 00 	movl   $0x2000,0x8(%esp)
 8049250:	00
 8049251:	c7 44 24 04 01 00 00 	movl   $0x1,0x4(%esp)
 8049258:	00
 8049259:	8d 5c 24 2c          	lea    0x2c(%esp),%ebx
 804925d:	89 1c 24             	mov    %ebx,(%esp)
 8049260:	e8 ab f6 ff ff       	call   8048910 <__sprintf_chk@plt>
 8049265:	8d 84 24 2c 20 00 00 	lea    0x202c(%esp),%eax
 804926c:	89 44 24 0c          	mov    %eax,0xc(%esp)
 8049270:	c7 44 24 08 00 00 00 	movl   $0x0,0x8(%esp)
 8049277:	00
 8049278:	89 5c 24 04          	mov    %ebx,0x4(%esp)
 804927c:	c7 04 24 a0 c1 04 08 	movl   $0x804c1a0,(%esp)
 8049283:	e8 24 0e 00 00       	call   804a0ac <driver_post>
 8049288:	85 c0                	test   %eax,%eax
 804928a:	79 1b                	jns    80492a7 <send_msg+0xf0>
 804928c:	8d 84 24 2c 20 00 00 	lea    0x202c(%esp),%eax
 8049293:	89 04 24             	mov    %eax,(%esp)
 8049296:	e8 55 f5 ff ff       	call   80487f0 <puts@plt>
 804929b:	c7 04 24 00 00 00 00 	movl   $0x0,(%esp)
 80492a2:	e8 89 f5 ff ff       	call   8048830 <exit@plt>
 80492a7:	8b 84 24 2c 40 00 00 	mov    0x402c(%esp),%eax
 80492ae:	65 33 05 14 00 00 00 	xor    %gs:0x14,%eax
 80492b5:	74 05                	je     80492bc <send_msg+0x105>
 80492b7:	e8 04 f5 ff ff       	call   80487c0 <__stack_chk_fail@plt>
 80492bc:	81 c4 34 40 00 00    	add    $0x4034,%esp
 80492c2:	5b                   	pop    %ebx
 80492c3:	5f                   	pop    %edi
 80492c4:	c3                   	ret

080492c5 <explode_bomb>:
 80492c5:	83 ec 1c             	sub    $0x1c,%esp
 80492c8:	c7 04 24 85 a5 04 08 	movl   $0x804a585,(%esp)
 80492cf:	e8 1c f5 ff ff       	call   80487f0 <puts@plt>
 80492d4:	c7 04 24 8e a5 04 08 	movl   $0x804a58e,(%esp)
 80492db:	e8 10 f5 ff ff       	call   80487f0 <puts@plt>
 80492e0:	c7 04 24 00 00 00 00 	movl   $0x0,(%esp)
 80492e7:	e8 cb fe ff ff       	call   80491b7 <send_msg>
 80492ec:	c7 04 24 3c a4 04 08 	movl   $0x804a43c,(%esp)
 80492f3:	e8 f8 f4 ff ff       	call   80487f0 <puts@plt>
 80492f8:	c7 04 24 08 00 00 00 	movl   $0x8,(%esp)
 80492ff:	e8 2c f5 ff ff       	call   8048830 <exit@plt>

08049304 <read_six_numbers>:
 8049304:	83 ec 2c             	sub    $0x2c,%esp

 8049307:	8b 44 24 34          	mov    0x34(%esp),%eax

 //==
 804930b:	8d 50 14             	lea    0x14(%eax),%edx
 804930e:	89 54 24 1c          	mov    %edx,0x1c(%esp)

 8049312:	8d 50 10             	lea    0x10(%eax),%edx
 8049315:	89 54 24 18          	mov    %edx,0x18(%esp)

 8049319:	8d 50 0c             	lea    0xc(%eax),%edx
 804931c:	89 54 24 14          	mov    %edx,0x14(%esp)

 8049320:	8d 50 08             	lea    0x8(%eax),%edx
 8049323:	89 54 24 10          	mov    %edx,0x10(%esp)

 8049327:	8d 50 04             	lea    0x4(%eax),%edx
 804932a:	89 54 24 0c          	mov    %edx,0xc(%esp)			// addr from parameter 2+4

 804932e:	89 44 24 08          	mov    %eax,0x8(%esp)			// addr from parameter 2

 8049332:	c7 44 24 04 a5 a5 04 	movl   $0x804a5a5,0x4(%esp) 	// scanf 1, "%d%d%d%d%d%d"
 8049339:	08

 804933a:	8b 44 24 30          	mov    0x30(%esp),%eax			// scanf 2, strting, from parameter 1
 804933e:	89 04 24             	mov    %eax,(%esp)
 //==

 8049341:	e8 1a f5 ff ff       	call   8048860 <__isoc99_sscanf@plt>
 8049346:	83 f8 05             	cmp    $0x5,%eax
 8049349:	7f 05                	jg     8049350 <read_six_numbers+0x4c>
 804934b:	e8 75 ff ff ff       	call   80492c5 <explode_bomb>
 8049350:	83 c4 2c             	add    $0x2c,%esp
 8049353:	c3                   	ret

08049354 <read_line>:
 8049354:	57                   	push   %edi
 8049355:	56                   	push   %esi
 8049356:	53                   	push   %ebx
 8049357:	83 ec 10             	sub    $0x10,%esp
 804935a:	e8 12 fe ff ff       	call   8049171 <skip>
 804935f:	85 c0                	test   %eax,%eax
 8049361:	75 6c                	jne    80493cf <read_line+0x7b>
 8049363:	a1 c4 c7 04 08       	mov    0x804c7c4,%eax
 8049368:	39 05 ec c7 04 08    	cmp    %eax,0x804c7ec
 804936e:	75 18                	jne    8049388 <read_line+0x34>
 8049370:	c7 04 24 b7 a5 04 08 	movl   $0x804a5b7,(%esp)
 8049377:	e8 74 f4 ff ff       	call   80487f0 <puts@plt>
 804937c:	c7 04 24 08 00 00 00 	movl   $0x8,(%esp)
 8049383:	e8 a8 f4 ff ff       	call   8048830 <exit@plt>
 8049388:	c7 04 24 d5 a5 04 08 	movl   $0x804a5d5,(%esp)
 804938f:	e8 4c f4 ff ff       	call   80487e0 <getenv@plt>
 8049394:	85 c0                	test   %eax,%eax
 8049396:	74 0c                	je     80493a4 <read_line+0x50>
 8049398:	c7 04 24 00 00 00 00 	movl   $0x0,(%esp)
 804939f:	e8 8c f4 ff ff       	call   8048830 <exit@plt>
 80493a4:	a1 c4 c7 04 08       	mov    0x804c7c4,%eax
 80493a9:	a3 ec c7 04 08       	mov    %eax,0x804c7ec
 80493ae:	e8 be fd ff ff       	call   8049171 <skip>
 80493b3:	85 c0                	test   %eax,%eax
 80493b5:	75 18                	jne    80493cf <read_line+0x7b>
 80493b7:	c7 04 24 b7 a5 04 08 	movl   $0x804a5b7,(%esp)
 80493be:	e8 2d f4 ff ff       	call   80487f0 <puts@plt>
 80493c3:	c7 04 24 00 00 00 00 	movl   $0x0,(%esp)
 80493ca:	e8 61 f4 ff ff       	call   8048830 <exit@plt>
 80493cf:	8b 15 e8 c7 04 08    	mov    0x804c7e8,%edx
 80493d5:	8d 1c 92             	lea    (%edx,%edx,4),%ebx
 80493d8:	c1 e3 04             	shl    $0x4,%ebx
 80493db:	81 c3 00 c8 04 08    	add    $0x804c800,%ebx
 80493e1:	89 df                	mov    %ebx,%edi
 80493e3:	b8 00 00 00 00       	mov    $0x0,%eax
 80493e8:	b9 ff ff ff ff       	mov    $0xffffffff,%ecx
 80493ed:	f2 ae                	repnz scas %es:(%edi),%al
 80493ef:	f7 d1                	not    %ecx
 80493f1:	83 e9 01             	sub    $0x1,%ecx
 80493f4:	83 f9 4e             	cmp    $0x4e,%ecx
 80493f7:	7e 35                	jle    804942e <read_line+0xda>
 80493f9:	c7 04 24 e0 a5 04 08 	movl   $0x804a5e0,(%esp)
 8049400:	e8 eb f3 ff ff       	call   80487f0 <puts@plt>
 8049405:	a1 e8 c7 04 08       	mov    0x804c7e8,%eax
 804940a:	8d 50 01             	lea    0x1(%eax),%edx
 804940d:	89 15 e8 c7 04 08    	mov    %edx,0x804c7e8
 8049413:	6b c0 50             	imul   $0x50,%eax,%eax
 8049416:	05 00 c8 04 08       	add    $0x804c800,%eax
 804941b:	be fb a5 04 08       	mov    $0x804a5fb,%esi
 8049420:	b9 04 00 00 00       	mov    $0x4,%ecx
 8049425:	89 c7                	mov    %eax,%edi
 8049427:	f3 a5                	rep movsl %ds:(%esi),%es:(%edi)
 8049429:	e8 97 fe ff ff       	call   80492c5 <explode_bomb>
 804942e:	8d 04 92             	lea    (%edx,%edx,4),%eax
 8049431:	c1 e0 04             	shl    $0x4,%eax
 8049434:	c6 84 01 ff c7 04 08 	movb   $0x0,0x804c7ff(%ecx,%eax,1)
 804943b:	00
 804943c:	83 c2 01             	add    $0x1,%edx
 804943f:	89 15 e8 c7 04 08    	mov    %edx,0x804c7e8
 8049445:	89 d8                	mov    %ebx,%eax
 8049447:	83 c4 10             	add    $0x10,%esp
 804944a:	5b                   	pop    %ebx
 804944b:	5e                   	pop    %esi
 804944c:	5f                   	pop    %edi
 804944d:	c3                   	ret

0804944e <phase_defused>:
 804944e:	81 ec 8c 00 00 00    	sub    $0x8c,%esp
 8049454:	65 a1 14 00 00 00    	mov    %gs:0x14,%eax
 804945a:	89 44 24 7c          	mov    %eax,0x7c(%esp)
 804945e:	31 c0                	xor    %eax,%eax
 8049460:	c7 04 24 01 00 00 00 	movl   $0x1,(%esp)
 8049467:	e8 4b fd ff ff       	call   80491b7 <send_msg>
 804946c:	83 3d e8 c7 04 08 06 	cmpl   $0x6,0x804c7e8
 8049473:	75 7e                	jne    80494f3 <phase_defused+0xa5>

//==
 8049475:	8d 44 24 2c          	lea    0x2c(%esp),%eax
 8049479:	89 44 24 10          	mov    %eax,0x10(%esp)

 804947d:	8d 44 24 28          	lea    0x28(%esp),%eax
 8049481:	89 44 24 0c          	mov    %eax,0xc(%esp)

 8049485:	8d 44 24 24          	lea    0x24(%esp),%eax
 8049489:	89 44 24 08          	mov    %eax,0x8(%esp)

 804948d:	c7 44 24 04 0b a6 04 	movl   $0x804a60b,0x4(%esp)

 8049494:	08
 8049495:	c7 04 24 f0 c8 04 08 	movl   $0x804c8f0,(%esp)
//==

 804949c:	e8 bf f3 ff ff       	call   8048860 <__isoc99_sscanf@plt>
 80494a1:	83 f8 03             	cmp    $0x3,%eax
 80494a4:	75 35                	jne    80494db <phase_defused+0x8d>

 80494a6:	c7 44 24 04 14 a6 04 	movl   $0x804a614,0x4(%esp)
 80494ad:	08
 80494ae:	8d 44 24 2c          	lea    0x2c(%esp),%eax
 80494b2:	89 04 24             	mov    %eax,(%esp)
 80494b5:	e8 90 fb ff ff       	call   804904a <strings_not_equal>
 80494ba:	85 c0                	test   %eax,%eax
 80494bc:	75 1d                	jne    80494db <phase_defused+0x8d>

 80494be:	c7 04 24 60 a4 04 08 	movl   $0x804a460,(%esp)
 80494c5:	e8 26 f3 ff ff       	call   80487f0 <puts@plt>
 80494ca:	c7 04 24 88 a4 04 08 	movl   $0x804a488,(%esp)
 80494d1:	e8 1a f3 ff ff       	call   80487f0 <puts@plt>
 80494d6:	e8 63 fa ff ff       	call   8048f3e <secret_phase>

 80494db:	c7 04 24 c0 a4 04 08 	movl   $0x804a4c0,(%esp)
 80494e2:	e8 09 f3 ff ff       	call   80487f0 <puts@plt>
 80494e7:	c7 04 24 ec a4 04 08 	movl   $0x804a4ec,(%esp)
 80494ee:	e8 fd f2 ff ff       	call   80487f0 <puts@plt>

 80494f3:	8b 44 24 7c          	mov    0x7c(%esp),%eax
 80494f7:	65 33 05 14 00 00 00 	xor    %gs:0x14,%eax
 80494fe:	74 05                	je     8049505 <phase_defused+0xb7>
 8049500:	e8 bb f2 ff ff       	call   80487c0 <__stack_chk_fail@plt>
 8049505:	81 c4 8c 00 00 00    	add    $0x8c,%esp
 804950b:	c3                   	ret
 804950c:	66 90                	xchg   %ax,%ax
 804950e:	66 90                	xchg   %ax,%ax

08049510 <sigalrm_handler>:
 8049510:	83 ec 1c             	sub    $0x1c,%esp
 8049513:	c7 44 24 0c 00 00 00 	movl   $0x0,0xc(%esp)
 804951a:	00
 804951b:	c7 44 24 08 68 a6 04 	movl   $0x804a668,0x8(%esp)
 8049522:	08
 8049523:	c7 44 24 04 01 00 00 	movl   $0x1,0x4(%esp)
 804952a:	00
 804952b:	a1 c0 c7 04 08       	mov    0x804c7c0,%eax
 8049530:	89 04 24             	mov    %eax,(%esp)
 8049533:	e8 78 f3 ff ff       	call   80488b0 <__fprintf_chk@plt>
 8049538:	c7 04 24 01 00 00 00 	movl   $0x1,(%esp)
 804953f:	e8 ec f2 ff ff       	call   8048830 <exit@plt>

08049544 <rio_readlineb>:
 8049544:	55                   	push   %ebp
 8049545:	57                   	push   %edi
 8049546:	56                   	push   %esi
 8049547:	53                   	push   %ebx
 8049548:	83 ec 3c             	sub    $0x3c,%esp
 804954b:	89 d5                	mov    %edx,%ebp
 804954d:	83 f9 01             	cmp    $0x1,%ecx
 8049550:	0f 86 d0 00 00 00    	jbe    8049626 <rio_readlineb+0xe2>
 8049556:	89 c3                	mov    %eax,%ebx
 8049558:	89 4c 24 1c          	mov    %ecx,0x1c(%esp)
 804955c:	c7 44 24 10 01 00 00 	movl   $0x1,0x10(%esp)
 8049563:	00
 8049564:	8d 78 0c             	lea    0xc(%eax),%edi
 8049567:	eb 33                	jmp    804959c <rio_readlineb+0x58>
 8049569:	c7 44 24 08 00 20 00 	movl   $0x2000,0x8(%esp)
 8049570:	00
 8049571:	89 7c 24 04          	mov    %edi,0x4(%esp)
 8049575:	8b 03                	mov    (%ebx),%eax
 8049577:	89 04 24             	mov    %eax,(%esp)
 804957a:	e8 e1 f1 ff ff       	call   8048760 <read@plt>
 804957f:	89 43 04             	mov    %eax,0x4(%ebx)
 8049582:	85 c0                	test   %eax,%eax
 8049584:	79 0f                	jns    8049595 <rio_readlineb+0x51>
 8049586:	e8 f5 f2 ff ff       	call   8048880 <__errno_location@plt>
 804958b:	83 38 04             	cmpl   $0x4,(%eax)
 804958e:	74 0c                	je     804959c <rio_readlineb+0x58>
 8049590:	e9 a3 00 00 00       	jmp    8049638 <rio_readlineb+0xf4>
 8049595:	85 c0                	test   %eax,%eax
 8049597:	74 6e                	je     8049607 <rio_readlineb+0xc3>
 8049599:	89 7b 08             	mov    %edi,0x8(%ebx)
 804959c:	8b 73 04             	mov    0x4(%ebx),%esi
 804959f:	85 f6                	test   %esi,%esi
 80495a1:	7e c6                	jle    8049569 <rio_readlineb+0x25>
 80495a3:	85 f6                	test   %esi,%esi
 80495a5:	0f 95 c0             	setne  %al
 80495a8:	0f b6 c0             	movzbl %al,%eax
 80495ab:	89 44 24 14          	mov    %eax,0x14(%esp)
 80495af:	8b 4b 08             	mov    0x8(%ebx),%ecx
 80495b2:	c7 44 24 0c 01 00 00 	movl   $0x1,0xc(%esp)
 80495b9:	00
 80495ba:	89 44 24 08          	mov    %eax,0x8(%esp)
 80495be:	89 4c 24 18          	mov    %ecx,0x18(%esp)
 80495c2:	89 4c 24 04          	mov    %ecx,0x4(%esp)
 80495c6:	8d 54 24 2f          	lea    0x2f(%esp),%edx
 80495ca:	89 14 24             	mov    %edx,(%esp)
 80495cd:	e8 3e f2 ff ff       	call   8048810 <__memcpy_chk@plt>
 80495d2:	8b 4c 24 18          	mov    0x18(%esp),%ecx
 80495d6:	8b 54 24 14          	mov    0x14(%esp),%edx
 80495da:	01 d1                	add    %edx,%ecx
 80495dc:	89 4b 08             	mov    %ecx,0x8(%ebx)
 80495df:	29 d6                	sub    %edx,%esi
 80495e1:	89 73 04             	mov    %esi,0x4(%ebx)
 80495e4:	83 fa 01             	cmp    $0x1,%edx
 80495e7:	75 11                	jne    80495fa <rio_readlineb+0xb6>
 80495e9:	83 c5 01             	add    $0x1,%ebp
 80495ec:	0f b6 44 24 2f       	movzbl 0x2f(%esp),%eax
 80495f1:	88 45 ff             	mov    %al,-0x1(%ebp)
 80495f4:	3c 0a                	cmp    $0xa,%al
 80495f6:	75 1a                	jne    8049612 <rio_readlineb+0xce>
 80495f8:	eb 34                	jmp    804962e <rio_readlineb+0xea>
 80495fa:	83 7c 24 14 00       	cmpl   $0x0,0x14(%esp)
 80495ff:	75 3e                	jne    804963f <rio_readlineb+0xfb>
 8049601:	8b 44 24 10          	mov    0x10(%esp),%eax
 8049605:	eb 04                	jmp    804960b <rio_readlineb+0xc7>
 8049607:	8b 44 24 10          	mov    0x10(%esp),%eax
 804960b:	83 f8 01             	cmp    $0x1,%eax
 804960e:	75 1e                	jne    804962e <rio_readlineb+0xea>
 8049610:	eb 34                	jmp    8049646 <rio_readlineb+0x102>
 8049612:	83 44 24 10 01       	addl   $0x1,0x10(%esp)
 8049617:	8b 44 24 1c          	mov    0x1c(%esp),%eax
 804961b:	39 44 24 10          	cmp    %eax,0x10(%esp)
 804961f:	74 0d                	je     804962e <rio_readlineb+0xea>
 8049621:	e9 76 ff ff ff       	jmp    804959c <rio_readlineb+0x58>
 8049626:	c7 44 24 10 01 00 00 	movl   $0x1,0x10(%esp)
 804962d:	00
 804962e:	c6 45 00 00          	movb   $0x0,0x0(%ebp)
 8049632:	8b 44 24 10          	mov    0x10(%esp),%eax
 8049636:	eb 13                	jmp    804964b <rio_readlineb+0x107>
 8049638:	b8 ff ff ff ff       	mov    $0xffffffff,%eax
 804963d:	eb 0c                	jmp    804964b <rio_readlineb+0x107>
 804963f:	b8 ff ff ff ff       	mov    $0xffffffff,%eax
 8049644:	eb 05                	jmp    804964b <rio_readlineb+0x107>
 8049646:	b8 00 00 00 00       	mov    $0x0,%eax
 804964b:	83 c4 3c             	add    $0x3c,%esp
 804964e:	5b                   	pop    %ebx
 804964f:	5e                   	pop    %esi
 8049650:	5f                   	pop    %edi
 8049651:	5d                   	pop    %ebp
 8049652:	c3                   	ret

08049653 <submitr>:
 8049653:	55                   	push   %ebp
 8049654:	57                   	push   %edi
 8049655:	56                   	push   %esi
 8049656:	53                   	push   %ebx
 8049657:	81 ec 7c a0 00 00    	sub    $0xa07c,%esp
 804965d:	8b b4 24 90 a0 00 00 	mov    0xa090(%esp),%esi
 8049664:	8b 84 24 98 a0 00 00 	mov    0xa098(%esp),%eax
 804966b:	89 44 24 28          	mov    %eax,0x28(%esp)
 804966f:	8b 84 24 9c a0 00 00 	mov    0xa09c(%esp),%eax
 8049676:	89 44 24 2c          	mov    %eax,0x2c(%esp)
 804967a:	8b 84 24 a0 a0 00 00 	mov    0xa0a0(%esp),%eax
 8049681:	89 44 24 30          	mov    %eax,0x30(%esp)
 8049685:	8b 9c 24 a4 a0 00 00 	mov    0xa0a4(%esp),%ebx
 804968c:	8b 84 24 a8 a0 00 00 	mov    0xa0a8(%esp),%eax
 8049693:	89 44 24 34          	mov    %eax,0x34(%esp)
 8049697:	65 a1 14 00 00 00    	mov    %gs:0x14,%eax
 804969d:	89 84 24 6c a0 00 00 	mov    %eax,0xa06c(%esp)
 80496a4:	31 c0                	xor    %eax,%eax
 80496a6:	c7 44 24 4c 00 00 00 	movl   $0x0,0x4c(%esp)
 80496ad:	00
 80496ae:	c7 44 24 08 00 00 00 	movl   $0x0,0x8(%esp)
 80496b5:	00
 80496b6:	c7 44 24 04 01 00 00 	movl   $0x1,0x4(%esp)
 80496bd:	00
 80496be:	c7 04 24 02 00 00 00 	movl   $0x2,(%esp)
 80496c5:	e8 d6 f1 ff ff       	call   80488a0 <socket@plt>
 80496ca:	89 c5                	mov    %eax,%ebp
 80496cc:	85 c0                	test   %eax,%eax
 80496ce:	79 52                	jns    8049722 <submitr+0xcf>
 80496d0:	8b 44 24 34          	mov    0x34(%esp),%eax
 80496d4:	c7 00 45 72 72 6f    	movl   $0x6f727245,(%eax)
 80496da:	c7 40 04 72 3a 20 43 	movl   $0x43203a72,0x4(%eax)
 80496e1:	c7 40 08 6c 69 65 6e 	movl   $0x6e65696c,0x8(%eax)
 80496e8:	c7 40 0c 74 20 75 6e 	movl   $0x6e752074,0xc(%eax)
 80496ef:	c7 40 10 61 62 6c 65 	movl   $0x656c6261,0x10(%eax)
 80496f6:	c7 40 14 20 74 6f 20 	movl   $0x206f7420,0x14(%eax)
 80496fd:	c7 40 18 63 72 65 61 	movl   $0x61657263,0x18(%eax)
 8049704:	c7 40 1c 74 65 20 73 	movl   $0x73206574,0x1c(%eax)
 804970b:	c7 40 20 6f 63 6b 65 	movl   $0x656b636f,0x20(%eax)
 8049712:	66 c7 40 24 74 00    	movw   $0x74,0x24(%eax)
 8049718:	b8 ff ff ff ff       	mov    $0xffffffff,%eax
 804971d:	e9 37 06 00 00       	jmp    8049d59 <submitr+0x706>
 8049722:	89 34 24             	mov    %esi,(%esp)
 8049725:	e8 96 f1 ff ff       	call   80488c0 <gethostbyname@plt>
 804972a:	85 c0                	test   %eax,%eax
 804972c:	75 6c                	jne    804979a <submitr+0x147>
 804972e:	8b 44 24 34          	mov    0x34(%esp),%eax
 8049732:	c7 00 45 72 72 6f    	movl   $0x6f727245,(%eax)
 8049738:	c7 40 04 72 3a 20 44 	movl   $0x44203a72,0x4(%eax)
 804973f:	c7 40 08 4e 53 20 69 	movl   $0x6920534e,0x8(%eax)
 8049746:	c7 40 0c 73 20 75 6e 	movl   $0x6e752073,0xc(%eax)
 804974d:	c7 40 10 61 62 6c 65 	movl   $0x656c6261,0x10(%eax)
 8049754:	c7 40 14 20 74 6f 20 	movl   $0x206f7420,0x14(%eax)
 804975b:	c7 40 18 72 65 73 6f 	movl   $0x6f736572,0x18(%eax)
 8049762:	c7 40 1c 6c 76 65 20 	movl   $0x2065766c,0x1c(%eax)
 8049769:	c7 40 20 73 65 72 76 	movl   $0x76726573,0x20(%eax)
 8049770:	c7 40 24 65 72 20 61 	movl   $0x61207265,0x24(%eax)
 8049777:	c7 40 28 64 64 72 65 	movl   $0x65726464,0x28(%eax)
 804977e:	66 c7 40 2c 73 73    	movw   $0x7373,0x2c(%eax)
 8049784:	c6 40 2e 00          	movb   $0x0,0x2e(%eax)
 8049788:	89 2c 24             	mov    %ebp,(%esp)
 804978b:	e8 60 f1 ff ff       	call   80488f0 <close@plt>
 8049790:	b8 ff ff ff ff       	mov    $0xffffffff,%eax
 8049795:	e9 bf 05 00 00       	jmp    8049d59 <submitr+0x706>
 804979a:	8d 74 24 50          	lea    0x50(%esp),%esi
 804979e:	c7 44 24 50 00 00 00 	movl   $0x0,0x50(%esp)
 80497a5:	00
 80497a6:	c7 44 24 54 00 00 00 	movl   $0x0,0x54(%esp)
 80497ad:	00
 80497ae:	c7 44 24 58 00 00 00 	movl   $0x0,0x58(%esp)
 80497b5:	00
 80497b6:	c7 44 24 5c 00 00 00 	movl   $0x0,0x5c(%esp)
 80497bd:	00
 80497be:	66 c7 44 24 50 02 00 	movw   $0x2,0x50(%esp)
 80497c5:	c7 44 24 0c 0c 00 00 	movl   $0xc,0xc(%esp)
 80497cc:	00
 80497cd:	8b 50 0c             	mov    0xc(%eax),%edx
 80497d0:	89 54 24 08          	mov    %edx,0x8(%esp)
 80497d4:	8b 40 10             	mov    0x10(%eax),%eax
 80497d7:	8b 00                	mov    (%eax),%eax
 80497d9:	89 44 24 04          	mov    %eax,0x4(%esp)
 80497dd:	8d 44 24 54          	lea    0x54(%esp),%eax
 80497e1:	89 04 24             	mov    %eax,(%esp)
 80497e4:	e8 17 f0 ff ff       	call   8048800 <__memmove_chk@plt>
 80497e9:	0f b7 84 24 94 a0 00 	movzwl 0xa094(%esp),%eax
 80497f0:	00
 80497f1:	66 c1 c8 08          	ror    $0x8,%ax
 80497f5:	66 89 44 24 52       	mov    %ax,0x52(%esp)
 80497fa:	c7 44 24 08 10 00 00 	movl   $0x10,0x8(%esp)
 8049801:	00
 8049802:	89 74 24 04          	mov    %esi,0x4(%esp)
 8049806:	89 2c 24             	mov    %ebp,(%esp)
 8049809:	e8 d2 f0 ff ff       	call   80488e0 <connect@plt>
 804980e:	85 c0                	test   %eax,%eax
 8049810:	79 5e                	jns    8049870 <submitr+0x21d>
 8049812:	8b 44 24 34          	mov    0x34(%esp),%eax
 8049816:	c7 00 45 72 72 6f    	movl   $0x6f727245,(%eax)
 804981c:	c7 40 04 72 3a 20 55 	movl   $0x55203a72,0x4(%eax)
 8049823:	c7 40 08 6e 61 62 6c 	movl   $0x6c62616e,0x8(%eax)
 804982a:	c7 40 0c 65 20 74 6f 	movl   $0x6f742065,0xc(%eax)
 8049831:	c7 40 10 20 63 6f 6e 	movl   $0x6e6f6320,0x10(%eax)
 8049838:	c7 40 14 6e 65 63 74 	movl   $0x7463656e,0x14(%eax)
 804983f:	c7 40 18 20 74 6f 20 	movl   $0x206f7420,0x18(%eax)
 8049846:	c7 40 1c 74 68 65 20 	movl   $0x20656874,0x1c(%eax)
 804984d:	c7 40 20 73 65 72 76 	movl   $0x76726573,0x20(%eax)
 8049854:	66 c7 40 24 65 72    	movw   $0x7265,0x24(%eax)
 804985a:	c6 40 26 00          	movb   $0x0,0x26(%eax)
 804985e:	89 2c 24             	mov    %ebp,(%esp)
 8049861:	e8 8a f0 ff ff       	call   80488f0 <close@plt>
 8049866:	b8 ff ff ff ff       	mov    $0xffffffff,%eax
 804986b:	e9 e9 04 00 00       	jmp    8049d59 <submitr+0x706>
 8049870:	ba ff ff ff ff       	mov    $0xffffffff,%edx
 8049875:	89 df                	mov    %ebx,%edi
 8049877:	b8 00 00 00 00       	mov    $0x0,%eax
 804987c:	89 d1                	mov    %edx,%ecx
 804987e:	f2 ae                	repnz scas %es:(%edi),%al
 8049880:	f7 d1                	not    %ecx
 8049882:	89 ce                	mov    %ecx,%esi
 8049884:	8b 7c 24 28          	mov    0x28(%esp),%edi
 8049888:	89 d1                	mov    %edx,%ecx
 804988a:	f2 ae                	repnz scas %es:(%edi),%al
 804988c:	89 4c 24 38          	mov    %ecx,0x38(%esp)
 8049890:	8b 7c 24 2c          	mov    0x2c(%esp),%edi
 8049894:	89 d1                	mov    %edx,%ecx
 8049896:	f2 ae                	repnz scas %es:(%edi),%al
 8049898:	f7 d1                	not    %ecx
 804989a:	89 4c 24 3c          	mov    %ecx,0x3c(%esp)
 804989e:	8b 7c 24 30          	mov    0x30(%esp),%edi
 80498a2:	89 d1                	mov    %edx,%ecx
 80498a4:	f2 ae                	repnz scas %es:(%edi),%al
 80498a6:	8b 44 24 3c          	mov    0x3c(%esp),%eax
 80498aa:	2b 44 24 38          	sub    0x38(%esp),%eax
 80498ae:	29 c8                	sub    %ecx,%eax
 80498b0:	89 c2                	mov    %eax,%edx
 80498b2:	8d 44 76 fd          	lea    -0x3(%esi,%esi,2),%eax
 80498b6:	8d 44 02 7b          	lea    0x7b(%edx,%eax,1),%eax
 80498ba:	3d 00 20 00 00       	cmp    $0x2000,%eax
 80498bf:	76 77                	jbe    8049938 <submitr+0x2e5>
 80498c1:	8b 44 24 34          	mov    0x34(%esp),%eax
 80498c5:	c7 00 45 72 72 6f    	movl   $0x6f727245,(%eax)
 80498cb:	c7 40 04 72 3a 20 52 	movl   $0x52203a72,0x4(%eax)
 80498d2:	c7 40 08 65 73 75 6c 	movl   $0x6c757365,0x8(%eax)
 80498d9:	c7 40 0c 74 20 73 74 	movl   $0x74732074,0xc(%eax)
 80498e0:	c7 40 10 72 69 6e 67 	movl   $0x676e6972,0x10(%eax)
 80498e7:	c7 40 14 20 74 6f 6f 	movl   $0x6f6f7420,0x14(%eax)
 80498ee:	c7 40 18 20 6c 61 72 	movl   $0x72616c20,0x18(%eax)
 80498f5:	c7 40 1c 67 65 2e 20 	movl   $0x202e6567,0x1c(%eax)
 80498fc:	c7 40 20 49 6e 63 72 	movl   $0x72636e49,0x20(%eax)
 8049903:	c7 40 24 65 61 73 65 	movl   $0x65736165,0x24(%eax)
 804990a:	c7 40 28 20 53 55 42 	movl   $0x42555320,0x28(%eax)
 8049911:	c7 40 2c 4d 49 54 52 	movl   $0x5254494d,0x2c(%eax)
 8049918:	c7 40 30 5f 4d 41 58 	movl   $0x58414d5f,0x30(%eax)
 804991f:	c7 40 34 42 55 46 00 	movl   $0x465542,0x34(%eax)
 8049926:	89 2c 24             	mov    %ebp,(%esp)
 8049929:	e8 c2 ef ff ff       	call   80488f0 <close@plt>
 804992e:	b8 ff ff ff ff       	mov    $0xffffffff,%eax
 8049933:	e9 21 04 00 00       	jmp    8049d59 <submitr+0x706>
 8049938:	8d 94 24 60 20 00 00 	lea    0x2060(%esp),%edx
 804993f:	b9 00 08 00 00       	mov    $0x800,%ecx
 8049944:	b8 00 00 00 00       	mov    $0x0,%eax
 8049949:	89 d7                	mov    %edx,%edi
 804994b:	f3 ab                	rep stos %eax,%es:(%edi)
 804994d:	89 df                	mov    %ebx,%edi
 804994f:	b9 ff ff ff ff       	mov    $0xffffffff,%ecx
 8049954:	f2 ae                	repnz scas %es:(%edi),%al
 8049956:	f7 d1                	not    %ecx
 8049958:	83 e9 01             	sub    $0x1,%ecx
 804995b:	89 ce                	mov    %ecx,%esi
 804995d:	0f 84 0f 04 00 00    	je     8049d72 <submitr+0x71f>
 8049963:	89 d7                	mov    %edx,%edi
 8049965:	0f b6 03             	movzbl (%ebx),%eax
 8049968:	3c 2a                	cmp    $0x2a,%al
 804996a:	74 21                	je     804998d <submitr+0x33a>
 804996c:	8d 50 d3             	lea    -0x2d(%eax),%edx
 804996f:	80 fa 01             	cmp    $0x1,%dl
 8049972:	76 19                	jbe    804998d <submitr+0x33a>
 8049974:	3c 5f                	cmp    $0x5f,%al
 8049976:	74 15                	je     804998d <submitr+0x33a>
 8049978:	8d 50 d0             	lea    -0x30(%eax),%edx
 804997b:	80 fa 09             	cmp    $0x9,%dl
 804997e:	76 0d                	jbe    804998d <submitr+0x33a>
 8049980:	89 c2                	mov    %eax,%edx
 8049982:	83 e2 df             	and    $0xffffffdf,%edx
 8049985:	83 ea 41             	sub    $0x41,%edx
 8049988:	80 fa 19             	cmp    $0x19,%dl
 804998b:	77 07                	ja     8049994 <submitr+0x341>
 804998d:	8d 57 01             	lea    0x1(%edi),%edx
 8049990:	88 07                	mov    %al,(%edi)
 8049992:	eb 6d                	jmp    8049a01 <submitr+0x3ae>
 8049994:	3c 20                	cmp    $0x20,%al
 8049996:	75 08                	jne    80499a0 <submitr+0x34d>
 8049998:	8d 57 01             	lea    0x1(%edi),%edx
 804999b:	c6 07 2b             	movb   $0x2b,(%edi)
 804999e:	eb 61                	jmp    8049a01 <submitr+0x3ae>
 80499a0:	8d 50 e0             	lea    -0x20(%eax),%edx
 80499a3:	80 fa 5f             	cmp    $0x5f,%dl
 80499a6:	76 08                	jbe    80499b0 <submitr+0x35d>
 80499a8:	3c 09                	cmp    $0x9,%al
 80499aa:	0f 85 2d 04 00 00    	jne    8049ddd <submitr+0x78a>
 80499b0:	0f b6 c0             	movzbl %al,%eax
 80499b3:	89 44 24 10          	mov    %eax,0x10(%esp)
 80499b7:	c7 44 24 0c 74 a7 04 	movl   $0x804a774,0xc(%esp)
 80499be:	08
 80499bf:	c7 44 24 08 08 00 00 	movl   $0x8,0x8(%esp)
 80499c6:	00
 80499c7:	c7 44 24 04 01 00 00 	movl   $0x1,0x4(%esp)
 80499ce:	00
 80499cf:	8d 84 24 60 80 00 00 	lea    0x8060(%esp),%eax
 80499d6:	89 04 24             	mov    %eax,(%esp)
 80499d9:	e8 32 ef ff ff       	call   8048910 <__sprintf_chk@plt>
 80499de:	0f b6 84 24 60 80 00 	movzbl 0x8060(%esp),%eax
 80499e5:	00
 80499e6:	88 07                	mov    %al,(%edi)
 80499e8:	0f b6 84 24 61 80 00 	movzbl 0x8061(%esp),%eax
 80499ef:	00
 80499f0:	88 47 01             	mov    %al,0x1(%edi)
 80499f3:	8d 57 03             	lea    0x3(%edi),%edx
 80499f6:	0f b6 84 24 62 80 00 	movzbl 0x8062(%esp),%eax
 80499fd:	00
 80499fe:	88 47 02             	mov    %al,0x2(%edi)
 8049a01:	83 c3 01             	add    $0x1,%ebx
 8049a04:	83 ee 01             	sub    $0x1,%esi
 8049a07:	0f 84 65 03 00 00    	je     8049d72 <submitr+0x71f>
 8049a0d:	89 d7                	mov    %edx,%edi
 8049a0f:	e9 51 ff ff ff       	jmp    8049965 <submitr+0x312>
 8049a14:	89 5c 24 08          	mov    %ebx,0x8(%esp)
 8049a18:	89 74 24 04          	mov    %esi,0x4(%esp)
 8049a1c:	89 2c 24             	mov    %ebp,(%esp)
 8049a1f:	e8 2c ee ff ff       	call   8048850 <write@plt>
 8049a24:	85 c0                	test   %eax,%eax
 8049a26:	7f 0f                	jg     8049a37 <submitr+0x3e4>
 8049a28:	e8 53 ee ff ff       	call   8048880 <__errno_location@plt>
 8049a2d:	83 38 04             	cmpl   $0x4,(%eax)
 8049a30:	75 0f                	jne    8049a41 <submitr+0x3ee>
 8049a32:	b8 00 00 00 00       	mov    $0x0,%eax
 8049a37:	01 c6                	add    %eax,%esi
 8049a39:	29 c3                	sub    %eax,%ebx
 8049a3b:	75 d7                	jne    8049a14 <submitr+0x3c1>
 8049a3d:	85 ff                	test   %edi,%edi
 8049a3f:	79 62                	jns    8049aa3 <submitr+0x450>
 8049a41:	8b 44 24 34          	mov    0x34(%esp),%eax
 8049a45:	c7 00 45 72 72 6f    	movl   $0x6f727245,(%eax)
 8049a4b:	c7 40 04 72 3a 20 43 	movl   $0x43203a72,0x4(%eax)
 8049a52:	c7 40 08 6c 69 65 6e 	movl   $0x6e65696c,0x8(%eax)
 8049a59:	c7 40 0c 74 20 75 6e 	movl   $0x6e752074,0xc(%eax)
 8049a60:	c7 40 10 61 62 6c 65 	movl   $0x656c6261,0x10(%eax)
 8049a67:	c7 40 14 20 74 6f 20 	movl   $0x206f7420,0x14(%eax)
 8049a6e:	c7 40 18 77 72 69 74 	movl   $0x74697277,0x18(%eax)
 8049a75:	c7 40 1c 65 20 74 6f 	movl   $0x6f742065,0x1c(%eax)
 8049a7c:	c7 40 20 20 74 68 65 	movl   $0x65687420,0x20(%eax)
 8049a83:	c7 40 24 20 73 65 72 	movl   $0x72657320,0x24(%eax)
 8049a8a:	c7 40 28 76 65 72 00 	movl   $0x726576,0x28(%eax)
 8049a91:	89 2c 24             	mov    %ebp,(%esp)
 8049a94:	e8 57 ee ff ff       	call   80488f0 <close@plt>
 8049a99:	b8 ff ff ff ff       	mov    $0xffffffff,%eax
 8049a9e:	e9 b6 02 00 00       	jmp    8049d59 <submitr+0x706>
 8049aa3:	89 ac 24 60 80 00 00 	mov    %ebp,0x8060(%esp)
 8049aaa:	c7 84 24 64 80 00 00 	movl   $0x0,0x8064(%esp)
 8049ab1:	00 00 00 00
 8049ab5:	8d 84 24 6c 80 00 00 	lea    0x806c(%esp),%eax
 8049abc:	89 84 24 68 80 00 00 	mov    %eax,0x8068(%esp)
 8049ac3:	b9 00 20 00 00       	mov    $0x2000,%ecx
 8049ac8:	8d 54 24 60          	lea    0x60(%esp),%edx
 8049acc:	8d 84 24 60 80 00 00 	lea    0x8060(%esp),%eax
 8049ad3:	e8 6c fa ff ff       	call   8049544 <rio_readlineb>
 8049ad8:	85 c0                	test   %eax,%eax
 8049ada:	7f 76                	jg     8049b52 <submitr+0x4ff>
 8049adc:	8b 44 24 34          	mov    0x34(%esp),%eax
 8049ae0:	c7 00 45 72 72 6f    	movl   $0x6f727245,(%eax)
 8049ae6:	c7 40 04 72 3a 20 43 	movl   $0x43203a72,0x4(%eax)
 8049aed:	c7 40 08 6c 69 65 6e 	movl   $0x6e65696c,0x8(%eax)
 8049af4:	c7 40 0c 74 20 75 6e 	movl   $0x6e752074,0xc(%eax)
 8049afb:	c7 40 10 61 62 6c 65 	movl   $0x656c6261,0x10(%eax)
 8049b02:	c7 40 14 20 74 6f 20 	movl   $0x206f7420,0x14(%eax)
 8049b09:	c7 40 18 72 65 61 64 	movl   $0x64616572,0x18(%eax)
 8049b10:	c7 40 1c 20 66 69 72 	movl   $0x72696620,0x1c(%eax)
 8049b17:	c7 40 20 73 74 20 68 	movl   $0x68207473,0x20(%eax)
 8049b1e:	c7 40 24 65 61 64 65 	movl   $0x65646165,0x24(%eax)
 8049b25:	c7 40 28 72 20 66 72 	movl   $0x72662072,0x28(%eax)
 8049b2c:	c7 40 2c 6f 6d 20 73 	movl   $0x73206d6f,0x2c(%eax)
 8049b33:	c7 40 30 65 72 76 65 	movl   $0x65767265,0x30(%eax)
 8049b3a:	66 c7 40 34 72 00    	movw   $0x72,0x34(%eax)
 8049b40:	89 2c 24             	mov    %ebp,(%esp)
 8049b43:	e8 a8 ed ff ff       	call   80488f0 <close@plt>
 8049b48:	b8 ff ff ff ff       	mov    $0xffffffff,%eax
 8049b4d:	e9 07 02 00 00       	jmp    8049d59 <submitr+0x706>
 8049b52:	8d 84 24 60 60 00 00 	lea    0x6060(%esp),%eax
 8049b59:	89 44 24 10          	mov    %eax,0x10(%esp)
 8049b5d:	8d 44 24 4c          	lea    0x4c(%esp),%eax
 8049b61:	89 44 24 0c          	mov    %eax,0xc(%esp)
 8049b65:	8d 84 24 60 40 00 00 	lea    0x4060(%esp),%eax
 8049b6c:	89 44 24 08          	mov    %eax,0x8(%esp)
 8049b70:	c7 44 24 04 7b a7 04 	movl   $0x804a77b,0x4(%esp)
 8049b77:	08
 8049b78:	8d 44 24 60          	lea    0x60(%esp),%eax
 8049b7c:	89 04 24             	mov    %eax,(%esp)
 8049b7f:	e8 dc ec ff ff       	call   8048860 <__isoc99_sscanf@plt>
 8049b84:	8b 44 24 4c          	mov    0x4c(%esp),%eax
 8049b88:	3d c8 00 00 00       	cmp    $0xc8,%eax
 8049b8d:	0f 84 cb 00 00 00    	je     8049c5e <submitr+0x60b>
 8049b93:	8d 94 24 60 60 00 00 	lea    0x6060(%esp),%edx
 8049b9a:	89 54 24 14          	mov    %edx,0x14(%esp)
 8049b9e:	89 44 24 10          	mov    %eax,0x10(%esp)
 8049ba2:	c7 44 24 0c 8c a6 04 	movl   $0x804a68c,0xc(%esp)
 8049ba9:	08
 8049baa:	c7 44 24 08 ff ff ff 	movl   $0xffffffff,0x8(%esp)
 8049bb1:	ff
 8049bb2:	c7 44 24 04 01 00 00 	movl   $0x1,0x4(%esp)
 8049bb9:	00
 8049bba:	8b 44 24 34          	mov    0x34(%esp),%eax
 8049bbe:	89 04 24             	mov    %eax,(%esp)
 8049bc1:	e8 4a ed ff ff       	call   8048910 <__sprintf_chk@plt>
 8049bc6:	89 2c 24             	mov    %ebp,(%esp)
 8049bc9:	e8 22 ed ff ff       	call   80488f0 <close@plt>
 8049bce:	b8 ff ff ff ff       	mov    $0xffffffff,%eax
 8049bd3:	e9 81 01 00 00       	jmp    8049d59 <submitr+0x706>
 8049bd8:	b9 00 20 00 00       	mov    $0x2000,%ecx
 8049bdd:	8d 54 24 60          	lea    0x60(%esp),%edx
 8049be1:	8d 84 24 60 80 00 00 	lea    0x8060(%esp),%eax
 8049be8:	e8 57 f9 ff ff       	call   8049544 <rio_readlineb>
 8049bed:	85 c0                	test   %eax,%eax
 8049bef:	7f 6d                	jg     8049c5e <submitr+0x60b>
 8049bf1:	8b 44 24 34          	mov    0x34(%esp),%eax
 8049bf5:	c7 00 45 72 72 6f    	movl   $0x6f727245,(%eax)
 8049bfb:	c7 40 04 72 3a 20 43 	movl   $0x43203a72,0x4(%eax)
 8049c02:	c7 40 08 6c 69 65 6e 	movl   $0x6e65696c,0x8(%eax)
 8049c09:	c7 40 0c 74 20 75 6e 	movl   $0x6e752074,0xc(%eax)
 8049c10:	c7 40 10 61 62 6c 65 	movl   $0x656c6261,0x10(%eax)
 8049c17:	c7 40 14 20 74 6f 20 	movl   $0x206f7420,0x14(%eax)
 8049c1e:	c7 40 18 72 65 61 64 	movl   $0x64616572,0x18(%eax)
 8049c25:	c7 40 1c 20 68 65 61 	movl   $0x61656820,0x1c(%eax)
 8049c2c:	c7 40 20 64 65 72 73 	movl   $0x73726564,0x20(%eax)
 8049c33:	c7 40 24 20 66 72 6f 	movl   $0x6f726620,0x24(%eax)
 8049c3a:	c7 40 28 6d 20 73 65 	movl   $0x6573206d,0x28(%eax)
 8049c41:	c7 40 2c 72 76 65 72 	movl   $0x72657672,0x2c(%eax)
 8049c48:	c6 40 30 00          	movb   $0x0,0x30(%eax)
 8049c4c:	89 2c 24             	mov    %ebp,(%esp)
 8049c4f:	e8 9c ec ff ff       	call   80488f0 <close@plt>
 8049c54:	b8 ff ff ff ff       	mov    $0xffffffff,%eax
 8049c59:	e9 fb 00 00 00       	jmp    8049d59 <submitr+0x706>
 8049c5e:	80 7c 24 60 0d       	cmpb   $0xd,0x60(%esp)
 8049c63:	0f 85 6f ff ff ff    	jne    8049bd8 <submitr+0x585>
 8049c69:	80 7c 24 61 0a       	cmpb   $0xa,0x61(%esp)
 8049c6e:	0f 85 64 ff ff ff    	jne    8049bd8 <submitr+0x585>
 8049c74:	80 7c 24 62 00       	cmpb   $0x0,0x62(%esp)
 8049c79:	0f 85 59 ff ff ff    	jne    8049bd8 <submitr+0x585>
 8049c7f:	b9 00 20 00 00       	mov    $0x2000,%ecx
 8049c84:	8d 54 24 60          	lea    0x60(%esp),%edx
 8049c88:	8d 84 24 60 80 00 00 	lea    0x8060(%esp),%eax
 8049c8f:	e8 b0 f8 ff ff       	call   8049544 <rio_readlineb>
 8049c94:	85 c0                	test   %eax,%eax
 8049c96:	7f 74                	jg     8049d0c <submitr+0x6b9>
 8049c98:	8b 44 24 34          	mov    0x34(%esp),%eax
 8049c9c:	c7 00 45 72 72 6f    	movl   $0x6f727245,(%eax)
 8049ca2:	c7 40 04 72 3a 20 43 	movl   $0x43203a72,0x4(%eax)
 8049ca9:	c7 40 08 6c 69 65 6e 	movl   $0x6e65696c,0x8(%eax)
 8049cb0:	c7 40 0c 74 20 75 6e 	movl   $0x6e752074,0xc(%eax)
 8049cb7:	c7 40 10 61 62 6c 65 	movl   $0x656c6261,0x10(%eax)
 8049cbe:	c7 40 14 20 74 6f 20 	movl   $0x206f7420,0x14(%eax)
 8049cc5:	c7 40 18 72 65 61 64 	movl   $0x64616572,0x18(%eax)
 8049ccc:	c7 40 1c 20 73 74 61 	movl   $0x61747320,0x1c(%eax)
 8049cd3:	c7 40 20 74 75 73 20 	movl   $0x20737574,0x20(%eax)
 8049cda:	c7 40 24 6d 65 73 73 	movl   $0x7373656d,0x24(%eax)
 8049ce1:	c7 40 28 61 67 65 20 	movl   $0x20656761,0x28(%eax)
 8049ce8:	c7 40 2c 66 72 6f 6d 	movl   $0x6d6f7266,0x2c(%eax)
 8049cef:	c7 40 30 20 73 65 72 	movl   $0x72657320,0x30(%eax)
 8049cf6:	c7 40 34 76 65 72 00 	movl   $0x726576,0x34(%eax)
 8049cfd:	89 2c 24             	mov    %ebp,(%esp)
 8049d00:	e8 eb eb ff ff       	call   80488f0 <close@plt>
 8049d05:	b8 ff ff ff ff       	mov    $0xffffffff,%eax
 8049d0a:	eb 4d                	jmp    8049d59 <submitr+0x706>
 8049d0c:	8d 44 24 60          	lea    0x60(%esp),%eax
 8049d10:	89 44 24 04          	mov    %eax,0x4(%esp)
 8049d14:	8b 74 24 34          	mov    0x34(%esp),%esi
 8049d18:	89 34 24             	mov    %esi,(%esp)
 8049d1b:	e8 b0 ea ff ff       	call   80487d0 <strcpy@plt>
 8049d20:	89 2c 24             	mov    %ebp,(%esp)
 8049d23:	e8 c8 eb ff ff       	call   80488f0 <close@plt>
 8049d28:	0f b6 06             	movzbl (%esi),%eax
 8049d2b:	ba 4f 00 00 00       	mov    $0x4f,%edx
 8049d30:	29 c2                	sub    %eax,%edx
 8049d32:	75 1b                	jne    8049d4f <submitr+0x6fc>
 8049d34:	8b 44 24 34          	mov    0x34(%esp),%eax
 8049d38:	0f b6 40 01          	movzbl 0x1(%eax),%eax
 8049d3c:	ba 4b 00 00 00       	mov    $0x4b,%edx
 8049d41:	29 c2                	sub    %eax,%edx
 8049d43:	75 0a                	jne    8049d4f <submitr+0x6fc>
 8049d45:	8b 44 24 34          	mov    0x34(%esp),%eax
 8049d49:	0f b6 50 02          	movzbl 0x2(%eax),%edx
 8049d4d:	f7 da                	neg    %edx
 8049d4f:	85 d2                	test   %edx,%edx
 8049d51:	0f 95 c0             	setne  %al
 8049d54:	0f b6 c0             	movzbl %al,%eax
 8049d57:	f7 d8                	neg    %eax
 8049d59:	8b 8c 24 6c a0 00 00 	mov    0xa06c(%esp),%ecx
 8049d60:	65 33 0d 14 00 00 00 	xor    %gs:0x14,%ecx
 8049d67:	0f 84 ef 00 00 00    	je     8049e5c <submitr+0x809>
 8049d6d:	e9 e5 00 00 00       	jmp    8049e57 <submitr+0x804>
 8049d72:	8d 84 24 60 20 00 00 	lea    0x2060(%esp),%eax
 8049d79:	89 44 24 1c          	mov    %eax,0x1c(%esp)
 8049d7d:	8b 44 24 30          	mov    0x30(%esp),%eax
 8049d81:	89 44 24 18          	mov    %eax,0x18(%esp)
 8049d85:	8b 44 24 2c          	mov    0x2c(%esp),%eax
 8049d89:	89 44 24 14          	mov    %eax,0x14(%esp)
 8049d8d:	8b 44 24 28          	mov    0x28(%esp),%eax
 8049d91:	89 44 24 10          	mov    %eax,0x10(%esp)
 8049d95:	c7 44 24 0c bc a6 04 	movl   $0x804a6bc,0xc(%esp)
 8049d9c:	08
 8049d9d:	c7 44 24 08 00 20 00 	movl   $0x2000,0x8(%esp)
 8049da4:	00
 8049da5:	c7 44 24 04 01 00 00 	movl   $0x1,0x4(%esp)
 8049dac:	00
 8049dad:	8d 7c 24 60          	lea    0x60(%esp),%edi
 8049db1:	89 3c 24             	mov    %edi,(%esp)
 8049db4:	e8 57 eb ff ff       	call   8048910 <__sprintf_chk@plt>
 8049db9:	b8 00 00 00 00       	mov    $0x0,%eax
 8049dbe:	b9 ff ff ff ff       	mov    $0xffffffff,%ecx
 8049dc3:	f2 ae                	repnz scas %es:(%edi),%al
 8049dc5:	f7 d1                	not    %ecx
 8049dc7:	83 e9 01             	sub    $0x1,%ecx
 8049dca:	89 cf                	mov    %ecx,%edi
 8049dcc:	0f 84 d1 fc ff ff    	je     8049aa3 <submitr+0x450>
 8049dd2:	89 cb                	mov    %ecx,%ebx
 8049dd4:	8d 74 24 60          	lea    0x60(%esp),%esi
 8049dd8:	e9 37 fc ff ff       	jmp    8049a14 <submitr+0x3c1>
 8049ddd:	8b 4c 24 34          	mov    0x34(%esp),%ecx
 8049de1:	89 cf                	mov    %ecx,%edi
 8049de3:	be 08 a7 04 08       	mov    $0x804a708,%esi
 8049de8:	b8 43 00 00 00       	mov    $0x43,%eax
 8049ded:	f6 c1 01             	test   $0x1,%cl
 8049df0:	74 16                	je     8049e08 <submitr+0x7b5>
 8049df2:	0f b6 05 08 a7 04 08 	movzbl 0x804a708,%eax
 8049df9:	88 01                	mov    %al,(%ecx)
 8049dfb:	8d 79 01             	lea    0x1(%ecx),%edi
 8049dfe:	be 09 a7 04 08       	mov    $0x804a709,%esi
 8049e03:	b8 42 00 00 00       	mov    $0x42,%eax
 8049e08:	f7 c7 02 00 00 00    	test   $0x2,%edi
 8049e0e:	74 0f                	je     8049e1f <submitr+0x7cc>
 8049e10:	0f b7 16             	movzwl (%esi),%edx
 8049e13:	66 89 17             	mov    %dx,(%edi)
 8049e16:	83 c7 02             	add    $0x2,%edi
 8049e19:	83 c6 02             	add    $0x2,%esi
 8049e1c:	83 e8 02             	sub    $0x2,%eax
 8049e1f:	89 c1                	mov    %eax,%ecx
 8049e21:	c1 e9 02             	shr    $0x2,%ecx
 8049e24:	f3 a5                	rep movsl %ds:(%esi),%es:(%edi)
 8049e26:	ba 00 00 00 00       	mov    $0x0,%edx
 8049e2b:	a8 02                	test   $0x2,%al
 8049e2d:	74 0b                	je     8049e3a <submitr+0x7e7>
 8049e2f:	0f b7 16             	movzwl (%esi),%edx
 8049e32:	66 89 17             	mov    %dx,(%edi)
 8049e35:	ba 02 00 00 00       	mov    $0x2,%edx
 8049e3a:	a8 01                	test   $0x1,%al
 8049e3c:	74 07                	je     8049e45 <submitr+0x7f2>
 8049e3e:	0f b6 04 16          	movzbl (%esi,%edx,1),%eax
 8049e42:	88 04 17             	mov    %al,(%edi,%edx,1)
 8049e45:	89 2c 24             	mov    %ebp,(%esp)
 8049e48:	e8 a3 ea ff ff       	call   80488f0 <close@plt>
 8049e4d:	b8 ff ff ff ff       	mov    $0xffffffff,%eax
 8049e52:	e9 02 ff ff ff       	jmp    8049d59 <submitr+0x706>
 8049e57:	e8 64 e9 ff ff       	call   80487c0 <__stack_chk_fail@plt>
 8049e5c:	81 c4 7c a0 00 00    	add    $0xa07c,%esp
 8049e62:	5b                   	pop    %ebx
 8049e63:	5e                   	pop    %esi
 8049e64:	5f                   	pop    %edi
 8049e65:	5d                   	pop    %ebp
 8049e66:	c3                   	ret

08049e67 <init_timeout>:
 8049e67:	53                   	push   %ebx
 8049e68:	83 ec 18             	sub    $0x18,%esp
 8049e6b:	8b 5c 24 20          	mov    0x20(%esp),%ebx
 8049e6f:	85 db                	test   %ebx,%ebx
 8049e71:	74 26                	je     8049e99 <init_timeout+0x32>
 8049e73:	c7 44 24 04 10 95 04 	movl   $0x8049510,0x4(%esp)
 8049e7a:	08
 8049e7b:	c7 04 24 0e 00 00 00 	movl   $0xe,(%esp)
 8049e82:	e8 09 e9 ff ff       	call   8048790 <signal@plt>
 8049e87:	85 db                	test   %ebx,%ebx
 8049e89:	b8 00 00 00 00       	mov    $0x0,%eax
 8049e8e:	0f 48 d8             	cmovs  %eax,%ebx
 8049e91:	89 1c 24             	mov    %ebx,(%esp)
 8049e94:	e8 17 e9 ff ff       	call   80487b0 <alarm@plt>
 8049e99:	83 c4 18             	add    $0x18,%esp
 8049e9c:	5b                   	pop    %ebx
 8049e9d:	c3                   	ret

08049e9e <init_driver>:
 8049e9e:	57                   	push   %edi
 8049e9f:	56                   	push   %esi
 8049ea0:	53                   	push   %ebx
 8049ea1:	83 ec 40             	sub    $0x40,%esp
 8049ea4:	8b 74 24 50          	mov    0x50(%esp),%esi
 8049ea8:	65 a1 14 00 00 00    	mov    %gs:0x14,%eax
 8049eae:	89 44 24 3c          	mov    %eax,0x3c(%esp)
 8049eb2:	31 c0                	xor    %eax,%eax
 8049eb4:	c7 44 24 04 01 00 00 	movl   $0x1,0x4(%esp)
 8049ebb:	00
 8049ebc:	c7 04 24 0d 00 00 00 	movl   $0xd,(%esp)
 8049ec3:	e8 c8 e8 ff ff       	call   8048790 <signal@plt>
 8049ec8:	c7 44 24 04 01 00 00 	movl   $0x1,0x4(%esp)
 8049ecf:	00
 8049ed0:	c7 04 24 1d 00 00 00 	movl   $0x1d,(%esp)
 8049ed7:	e8 b4 e8 ff ff       	call   8048790 <signal@plt>
 8049edc:	c7 44 24 04 01 00 00 	movl   $0x1,0x4(%esp)
 8049ee3:	00
 8049ee4:	c7 04 24 1d 00 00 00 	movl   $0x1d,(%esp)
 8049eeb:	e8 a0 e8 ff ff       	call   8048790 <signal@plt>
 8049ef0:	c7 44 24 08 00 00 00 	movl   $0x0,0x8(%esp)
 8049ef7:	00
 8049ef8:	c7 44 24 04 01 00 00 	movl   $0x1,0x4(%esp)
 8049eff:	00
 8049f00:	c7 04 24 02 00 00 00 	movl   $0x2,(%esp)
 8049f07:	e8 94 e9 ff ff       	call   80488a0 <socket@plt>
 8049f0c:	89 c3                	mov    %eax,%ebx
 8049f0e:	85 c0                	test   %eax,%eax
 8049f10:	79 4e                	jns    8049f60 <init_driver+0xc2>
 8049f12:	c7 06 45 72 72 6f    	movl   $0x6f727245,(%esi)
 8049f18:	c7 46 04 72 3a 20 43 	movl   $0x43203a72,0x4(%esi)
 8049f1f:	c7 46 08 6c 69 65 6e 	movl   $0x6e65696c,0x8(%esi)
 8049f26:	c7 46 0c 74 20 75 6e 	movl   $0x6e752074,0xc(%esi)
 8049f2d:	c7 46 10 61 62 6c 65 	movl   $0x656c6261,0x10(%esi)
 8049f34:	c7 46 14 20 74 6f 20 	movl   $0x206f7420,0x14(%esi)
 8049f3b:	c7 46 18 63 72 65 61 	movl   $0x61657263,0x18(%esi)
 8049f42:	c7 46 1c 74 65 20 73 	movl   $0x73206574,0x1c(%esi)
 8049f49:	c7 46 20 6f 63 6b 65 	movl   $0x656b636f,0x20(%esi)
 8049f50:	66 c7 46 24 74 00    	movw   $0x74,0x24(%esi)
 8049f56:	b8 ff ff ff ff       	mov    $0xffffffff,%eax
 8049f5b:	e9 33 01 00 00       	jmp    804a093 <init_driver+0x1f5>
 8049f60:	c7 04 24 8c a7 04 08 	movl   $0x804a78c,(%esp)
 8049f67:	e8 54 e9 ff ff       	call   80488c0 <gethostbyname@plt>
 8049f6c:	85 c0                	test   %eax,%eax
 8049f6e:	75 68                	jne    8049fd8 <init_driver+0x13a>
 8049f70:	c7 06 45 72 72 6f    	movl   $0x6f727245,(%esi)
 8049f76:	c7 46 04 72 3a 20 44 	movl   $0x44203a72,0x4(%esi)
 8049f7d:	c7 46 08 4e 53 20 69 	movl   $0x6920534e,0x8(%esi)
 8049f84:	c7 46 0c 73 20 75 6e 	movl   $0x6e752073,0xc(%esi)
 8049f8b:	c7 46 10 61 62 6c 65 	movl   $0x656c6261,0x10(%esi)
 8049f92:	c7 46 14 20 74 6f 20 	movl   $0x206f7420,0x14(%esi)
 8049f99:	c7 46 18 72 65 73 6f 	movl   $0x6f736572,0x18(%esi)
 8049fa0:	c7 46 1c 6c 76 65 20 	movl   $0x2065766c,0x1c(%esi)
 8049fa7:	c7 46 20 73 65 72 76 	movl   $0x76726573,0x20(%esi)
 8049fae:	c7 46 24 65 72 20 61 	movl   $0x61207265,0x24(%esi)
 8049fb5:	c7 46 28 64 64 72 65 	movl   $0x65726464,0x28(%esi)
 8049fbc:	66 c7 46 2c 73 73    	movw   $0x7373,0x2c(%esi)
 8049fc2:	c6 46 2e 00          	movb   $0x0,0x2e(%esi)
 8049fc6:	89 1c 24             	mov    %ebx,(%esp)
 8049fc9:	e8 22 e9 ff ff       	call   80488f0 <close@plt>
 8049fce:	b8 ff ff ff ff       	mov    $0xffffffff,%eax
 8049fd3:	e9 bb 00 00 00       	jmp    804a093 <init_driver+0x1f5>
 8049fd8:	8d 7c 24 2c          	lea    0x2c(%esp),%edi
 8049fdc:	c7 44 24 2c 00 00 00 	movl   $0x0,0x2c(%esp)
 8049fe3:	00
 8049fe4:	c7 44 24 30 00 00 00 	movl   $0x0,0x30(%esp)
 8049feb:	00
 8049fec:	c7 44 24 34 00 00 00 	movl   $0x0,0x34(%esp)
 8049ff3:	00
 8049ff4:	c7 44 24 38 00 00 00 	movl   $0x0,0x38(%esp)
 8049ffb:	00
 8049ffc:	66 c7 44 24 2c 02 00 	movw   $0x2,0x2c(%esp)
 804a003:	c7 44 24 0c 0c 00 00 	movl   $0xc,0xc(%esp)
 804a00a:	00
 804a00b:	8b 50 0c             	mov    0xc(%eax),%edx
 804a00e:	89 54 24 08          	mov    %edx,0x8(%esp)
 804a012:	8b 40 10             	mov    0x10(%eax),%eax
 804a015:	8b 00                	mov    (%eax),%eax
 804a017:	89 44 24 04          	mov    %eax,0x4(%esp)
 804a01b:	8d 44 24 30          	lea    0x30(%esp),%eax
 804a01f:	89 04 24             	mov    %eax,(%esp)
 804a022:	e8 d9 e7 ff ff       	call   8048800 <__memmove_chk@plt>
 804a027:	66 c7 44 24 2e 3b 6e 	movw   $0x6e3b,0x2e(%esp)
 804a02e:	c7 44 24 08 10 00 00 	movl   $0x10,0x8(%esp)
 804a035:	00
 804a036:	89 7c 24 04          	mov    %edi,0x4(%esp)
 804a03a:	89 1c 24             	mov    %ebx,(%esp)
 804a03d:	e8 9e e8 ff ff       	call   80488e0 <connect@plt>
 804a042:	85 c0                	test   %eax,%eax
 804a044:	79 37                	jns    804a07d <init_driver+0x1df>
 804a046:	c7 44 24 10 8c a7 04 	movl   $0x804a78c,0x10(%esp)
 804a04d:	08
 804a04e:	c7 44 24 0c 4c a7 04 	movl   $0x804a74c,0xc(%esp)
 804a055:	08
 804a056:	c7 44 24 08 ff ff ff 	movl   $0xffffffff,0x8(%esp)
 804a05d:	ff
 804a05e:	c7 44 24 04 01 00 00 	movl   $0x1,0x4(%esp)
 804a065:	00
 804a066:	89 34 24             	mov    %esi,(%esp)
 804a069:	e8 a2 e8 ff ff       	call   8048910 <__sprintf_chk@plt>
 804a06e:	89 1c 24             	mov    %ebx,(%esp)
 804a071:	e8 7a e8 ff ff       	call   80488f0 <close@plt>
 804a076:	b8 ff ff ff ff       	mov    $0xffffffff,%eax
 804a07b:	eb 16                	jmp    804a093 <init_driver+0x1f5>
 804a07d:	89 1c 24             	mov    %ebx,(%esp)
 804a080:	e8 6b e8 ff ff       	call   80488f0 <close@plt>
 804a085:	66 c7 06 4f 4b       	movw   $0x4b4f,(%esi)
 804a08a:	c6 46 02 00          	movb   $0x0,0x2(%esi)
 804a08e:	b8 00 00 00 00       	mov    $0x0,%eax
 804a093:	8b 4c 24 3c          	mov    0x3c(%esp),%ecx
 804a097:	65 33 0d 14 00 00 00 	xor    %gs:0x14,%ecx
 804a09e:	74 05                	je     804a0a5 <init_driver+0x207>
 804a0a0:	e8 1b e7 ff ff       	call   80487c0 <__stack_chk_fail@plt>
 804a0a5:	83 c4 40             	add    $0x40,%esp
 804a0a8:	5b                   	pop    %ebx
 804a0a9:	5e                   	pop    %esi
 804a0aa:	5f                   	pop    %edi
 804a0ab:	c3                   	ret

0804a0ac <driver_post>:
 804a0ac:	53                   	push   %ebx
 804a0ad:	83 ec 28             	sub    $0x28,%esp
 804a0b0:	8b 44 24 30          	mov    0x30(%esp),%eax
 804a0b4:	8b 5c 24 3c          	mov    0x3c(%esp),%ebx
 804a0b8:	83 7c 24 38 00       	cmpl   $0x0,0x38(%esp)
 804a0bd:	74 2c                	je     804a0eb <driver_post+0x3f>
 804a0bf:	8b 44 24 34          	mov    0x34(%esp),%eax
 804a0c3:	89 44 24 08          	mov    %eax,0x8(%esp)
 804a0c7:	c7 44 24 04 9a a7 04 	movl   $0x804a79a,0x4(%esp)
 804a0ce:	08
 804a0cf:	c7 04 24 01 00 00 00 	movl   $0x1,(%esp)
 804a0d6:	e8 b5 e7 ff ff       	call   8048890 <__printf_chk@plt>
 804a0db:	66 c7 03 4f 4b       	movw   $0x4b4f,(%ebx)
 804a0e0:	c6 43 02 00          	movb   $0x0,0x2(%ebx)
 804a0e4:	b8 00 00 00 00       	mov    $0x0,%eax
 804a0e9:	eb 4d                	jmp    804a138 <driver_post+0x8c>
 804a0eb:	85 c0                	test   %eax,%eax
 804a0ed:	74 3b                	je     804a12a <driver_post+0x7e>
 804a0ef:	80 38 00             	cmpb   $0x0,(%eax)
 804a0f2:	74 36                	je     804a12a <driver_post+0x7e>
 804a0f4:	89 5c 24 18          	mov    %ebx,0x18(%esp)
 804a0f8:	8b 54 24 34          	mov    0x34(%esp),%edx
 804a0fc:	89 54 24 14          	mov    %edx,0x14(%esp)
 804a100:	c7 44 24 10 b1 a7 04 	movl   $0x804a7b1,0x10(%esp)
 804a107:	08
 804a108:	89 44 24 0c          	mov    %eax,0xc(%esp)
 804a10c:	c7 44 24 08 c0 a7 04 	movl   $0x804a7c0,0x8(%esp)
 804a113:	08
 804a114:	c7 44 24 04 6e 3b 00 	movl   $0x3b6e,0x4(%esp)
 804a11b:	00
 804a11c:	c7 04 24 8c a7 04 08 	movl   $0x804a78c,(%esp)
 804a123:	e8 2b f5 ff ff       	call   8049653 <submitr>
 804a128:	eb 0e                	jmp    804a138 <driver_post+0x8c>
 804a12a:	66 c7 03 4f 4b       	movw   $0x4b4f,(%ebx)
 804a12f:	c6 43 02 00          	movb   $0x0,0x2(%ebx)
 804a133:	b8 00 00 00 00       	mov    $0x0,%eax
 804a138:	83 c4 28             	add    $0x28,%esp
 804a13b:	5b                   	pop    %ebx
 804a13c:	c3                   	ret
 804a13d:	66 90                	xchg   %ax,%ax
 804a13f:	90                   	nop

0804a140 <__libc_csu_init>:
 804a140:	55                   	push   %ebp
 804a141:	57                   	push   %edi
 804a142:	31 ff                	xor    %edi,%edi
 804a144:	56                   	push   %esi
 804a145:	53                   	push   %ebx
 804a146:	e8 05 e8 ff ff       	call   8048950 <__x86.get_pc_thunk.bx>
 804a14b:	81 c3 b5 1e 00 00    	add    $0x1eb5,%ebx
 804a151:	83 ec 1c             	sub    $0x1c,%esp
 804a154:	8b 6c 24 30          	mov    0x30(%esp),%ebp
 804a158:	8d b3 0c ff ff ff    	lea    -0xf4(%ebx),%esi
 804a15e:	e8 c1 e5 ff ff       	call   8048724 <_init>
 804a163:	8d 83 08 ff ff ff    	lea    -0xf8(%ebx),%eax
 804a169:	29 c6                	sub    %eax,%esi
 804a16b:	c1 fe 02             	sar    $0x2,%esi
 804a16e:	85 f6                	test   %esi,%esi
 804a170:	74 27                	je     804a199 <__libc_csu_init+0x59>
 804a172:	8d b6 00 00 00 00    	lea    0x0(%esi),%esi
 804a178:	8b 44 24 38          	mov    0x38(%esp),%eax
 804a17c:	89 2c 24             	mov    %ebp,(%esp)
 804a17f:	89 44 24 08          	mov    %eax,0x8(%esp)
 804a183:	8b 44 24 34          	mov    0x34(%esp),%eax
 804a187:	89 44 24 04          	mov    %eax,0x4(%esp)
 804a18b:	ff 94 bb 08 ff ff ff 	call   *-0xf8(%ebx,%edi,4)
 804a192:	83 c7 01             	add    $0x1,%edi
 804a195:	39 f7                	cmp    %esi,%edi
 804a197:	75 df                	jne    804a178 <__libc_csu_init+0x38>
 804a199:	83 c4 1c             	add    $0x1c,%esp
 804a19c:	5b                   	pop    %ebx
 804a19d:	5e                   	pop    %esi
 804a19e:	5f                   	pop    %edi
 804a19f:	5d                   	pop    %ebp
 804a1a0:	c3                   	ret
 804a1a1:	eb 0d                	jmp    804a1b0 <__libc_csu_fini>
 804a1a3:	90                   	nop
 804a1a4:	90                   	nop
 804a1a5:	90                   	nop
 804a1a6:	90                   	nop
 804a1a7:	90                   	nop
 804a1a8:	90                   	nop
 804a1a9:	90                   	nop
 804a1aa:	90                   	nop
 804a1ab:	90                   	nop
 804a1ac:	90                   	nop
 804a1ad:	90                   	nop
 804a1ae:	90                   	nop
 804a1af:	90                   	nop

0804a1b0 <__libc_csu_fini>:
 804a1b0:	f3 c3                	repz ret

Disassembly of section .fini:

0804a1b4 <_fini>:
 804a1b4:	53                   	push   %ebx
 804a1b5:	83 ec 08             	sub    $0x8,%esp
 804a1b8:	e8 93 e7 ff ff       	call   8048950 <__x86.get_pc_thunk.bx>
 804a1bd:	81 c3 43 1e 00 00    	add    $0x1e43,%ebx
 804a1c3:	83 c4 08             	add    $0x8,%esp
 804a1c6:	5b                   	pop    %ebx
 804a1c7:	c3                   	ret
