
bufbomb:     file format elf32-i386


Disassembly of section bstack:

55586000 <_reserved>:
	...

Disassembly of section .init:

080487e4 <_init>:
 80487e4:	53                   	push   %ebx
 80487e5:	83 ec 08             	sub    $0x8,%esp
 80487e8:	e8 93 02 00 00       	call   8048a80 <__x86.get_pc_thunk.bx>
 80487ed:	81 c3 13 38 00 00    	add    $0x3813,%ebx
 80487f3:	8b 83 fc ff ff ff    	mov    -0x4(%ebx),%eax
 80487f9:	85 c0                	test   %eax,%eax
 80487fb:	74 05                	je     8048802 <_init+0x1e>
 80487fd:	e8 ee 00 00 00       	call   80488f0 <__gmon_start__@plt>
 8048802:	83 c4 08             	add    $0x8,%esp
 8048805:	5b                   	pop    %ebx
 8048806:	c3                   	ret

Disassembly of section .plt:

08048810 <.plt>:
 8048810:	ff 35 04 c0 04 08    	pushl  0x804c004
 8048816:	ff 25 08 c0 04 08    	jmp    *0x804c008
 804881c:	00 00                	add    %al,(%eax)
	...

08048820 <read@plt>:
 8048820:	ff 25 0c c0 04 08    	jmp    *0x804c00c
 8048826:	68 00 00 00 00       	push   $0x0
 804882b:	e9 e0 ff ff ff       	jmp    8048810 <.plt>

08048830 <srandom@plt>:
 8048830:	ff 25 10 c0 04 08    	jmp    *0x804c010
 8048836:	68 08 00 00 00       	push   $0x8
 804883b:	e9 d0 ff ff ff       	jmp    8048810 <.plt>

08048840 <signal@plt>:
 8048840:	ff 25 14 c0 04 08    	jmp    *0x804c014
 8048846:	68 10 00 00 00       	push   $0x10
 804884b:	e9 c0 ff ff ff       	jmp    8048810 <.plt>

08048850 <alarm@plt>:
 8048850:	ff 25 18 c0 04 08    	jmp    *0x804c018
 8048856:	68 18 00 00 00       	push   $0x18
 804885b:	e9 b0 ff ff ff       	jmp    8048810 <.plt>

08048860 <__stack_chk_fail@plt>:
 8048860:	ff 25 1c c0 04 08    	jmp    *0x804c01c
 8048866:	68 20 00 00 00       	push   $0x20
 804886b:	e9 a0 ff ff ff       	jmp    8048810 <.plt>

08048870 <_IO_getc@plt>:
 8048870:	ff 25 20 c0 04 08    	jmp    *0x804c020
 8048876:	68 28 00 00 00       	push   $0x28
 804887b:	e9 90 ff ff ff       	jmp    8048810 <.plt>

08048880 <fwrite@plt>:
 8048880:	ff 25 24 c0 04 08    	jmp    *0x804c024
 8048886:	68 30 00 00 00       	push   $0x30
 804888b:	e9 80 ff ff ff       	jmp    8048810 <.plt>

08048890 <strcpy@plt>:
 8048890:	ff 25 28 c0 04 08    	jmp    *0x804c028
 8048896:	68 38 00 00 00       	push   $0x38
 804889b:	e9 70 ff ff ff       	jmp    8048810 <.plt>

080488a0 <getpid@plt>:
 80488a0:	ff 25 2c c0 04 08    	jmp    *0x804c02c
 80488a6:	68 40 00 00 00       	push   $0x40
 80488ab:	e9 60 ff ff ff       	jmp    8048810 <.plt>

080488b0 <gethostname@plt>:
 80488b0:	ff 25 30 c0 04 08    	jmp    *0x804c030
 80488b6:	68 48 00 00 00       	push   $0x48
 80488bb:	e9 50 ff ff ff       	jmp    8048810 <.plt>

080488c0 <puts@plt>:
 80488c0:	ff 25 34 c0 04 08    	jmp    *0x804c034
 80488c6:	68 50 00 00 00       	push   $0x50
 80488cb:	e9 40 ff ff ff       	jmp    8048810 <.plt>

080488d0 <__memmove_chk@plt>:
 80488d0:	ff 25 38 c0 04 08    	jmp    *0x804c038
 80488d6:	68 58 00 00 00       	push   $0x58
 80488db:	e9 30 ff ff ff       	jmp    8048810 <.plt>

080488e0 <__memcpy_chk@plt>:
 80488e0:	ff 25 3c c0 04 08    	jmp    *0x804c03c
 80488e6:	68 60 00 00 00       	push   $0x60
 80488eb:	e9 20 ff ff ff       	jmp    8048810 <.plt>

080488f0 <__gmon_start__@plt>:
 80488f0:	ff 25 40 c0 04 08    	jmp    *0x804c040
 80488f6:	68 68 00 00 00       	push   $0x68
 80488fb:	e9 10 ff ff ff       	jmp    8048810 <.plt>

08048900 <exit@plt>:
 8048900:	ff 25 44 c0 04 08    	jmp    *0x804c044
 8048906:	68 70 00 00 00       	push   $0x70
 804890b:	e9 00 ff ff ff       	jmp    8048810 <.plt>

08048910 <srand@plt>:
 8048910:	ff 25 48 c0 04 08    	jmp    *0x804c048
 8048916:	68 78 00 00 00       	push   $0x78
 804891b:	e9 f0 fe ff ff       	jmp    8048810 <.plt>

08048920 <mmap@plt>:
 8048920:	ff 25 4c c0 04 08    	jmp    *0x804c04c
 8048926:	68 80 00 00 00       	push   $0x80
 804892b:	e9 e0 fe ff ff       	jmp    8048810 <.plt>

08048930 <__libc_start_main@plt>:
 8048930:	ff 25 50 c0 04 08    	jmp    *0x804c050
 8048936:	68 88 00 00 00       	push   $0x88
 804893b:	e9 d0 fe ff ff       	jmp    8048810 <.plt>

08048940 <write@plt>:
 8048940:	ff 25 54 c0 04 08    	jmp    *0x804c054
 8048946:	68 90 00 00 00       	push   $0x90
 804894b:	e9 c0 fe ff ff       	jmp    8048810 <.plt>

08048950 <getopt@plt>:
 8048950:	ff 25 58 c0 04 08    	jmp    *0x804c058
 8048956:	68 98 00 00 00       	push   $0x98
 804895b:	e9 b0 fe ff ff       	jmp    8048810 <.plt>

08048960 <strcasecmp@plt>:
 8048960:	ff 25 5c c0 04 08    	jmp    *0x804c05c
 8048966:	68 a0 00 00 00       	push   $0xa0
 804896b:	e9 a0 fe ff ff       	jmp    8048810 <.plt>

08048970 <__isoc99_sscanf@plt>:
 8048970:	ff 25 60 c0 04 08    	jmp    *0x804c060
 8048976:	68 a8 00 00 00       	push   $0xa8
 804897b:	e9 90 fe ff ff       	jmp    8048810 <.plt>

08048980 <memset@plt>:
 8048980:	ff 25 64 c0 04 08    	jmp    *0x804c064
 8048986:	68 b0 00 00 00       	push   $0xb0
 804898b:	e9 80 fe ff ff       	jmp    8048810 <.plt>

08048990 <__strdup@plt>:
 8048990:	ff 25 68 c0 04 08    	jmp    *0x804c068
 8048996:	68 b8 00 00 00       	push   $0xb8
 804899b:	e9 70 fe ff ff       	jmp    8048810 <.plt>

080489a0 <__errno_location@plt>:
 80489a0:	ff 25 6c c0 04 08    	jmp    *0x804c06c
 80489a6:	68 c0 00 00 00       	push   $0xc0
 80489ab:	e9 60 fe ff ff       	jmp    8048810 <.plt>

080489b0 <rand@plt>:
 80489b0:	ff 25 70 c0 04 08    	jmp    *0x804c070
 80489b6:	68 c8 00 00 00       	push   $0xc8
 80489bb:	e9 50 fe ff ff       	jmp    8048810 <.plt>

080489c0 <__printf_chk@plt>:
 80489c0:	ff 25 74 c0 04 08    	jmp    *0x804c074
 80489c6:	68 d0 00 00 00       	push   $0xd0
 80489cb:	e9 40 fe ff ff       	jmp    8048810 <.plt>

080489d0 <munmap@plt>:
 80489d0:	ff 25 78 c0 04 08    	jmp    *0x804c078
 80489d6:	68 d8 00 00 00       	push   $0xd8
 80489db:	e9 30 fe ff ff       	jmp    8048810 <.plt>

080489e0 <socket@plt>:
 80489e0:	ff 25 7c c0 04 08    	jmp    *0x804c07c
 80489e6:	68 e0 00 00 00       	push   $0xe0
 80489eb:	e9 20 fe ff ff       	jmp    8048810 <.plt>

080489f0 <random@plt>:
 80489f0:	ff 25 80 c0 04 08    	jmp    *0x804c080
 80489f6:	68 e8 00 00 00       	push   $0xe8
 80489fb:	e9 10 fe ff ff       	jmp    8048810 <.plt>

08048a00 <gethostbyname@plt>:
 8048a00:	ff 25 84 c0 04 08    	jmp    *0x804c084
 8048a06:	68 f0 00 00 00       	push   $0xf0
 8048a0b:	e9 00 fe ff ff       	jmp    8048810 <.plt>

08048a10 <connect@plt>:
 8048a10:	ff 25 88 c0 04 08    	jmp    *0x804c088
 8048a16:	68 f8 00 00 00       	push   $0xf8
 8048a1b:	e9 f0 fd ff ff       	jmp    8048810 <.plt>

08048a20 <close@plt>:
 8048a20:	ff 25 8c c0 04 08    	jmp    *0x804c08c
 8048a26:	68 00 01 00 00       	push   $0x100
 8048a2b:	e9 e0 fd ff ff       	jmp    8048810 <.plt>

08048a30 <calloc@plt>:
 8048a30:	ff 25 90 c0 04 08    	jmp    *0x804c090
 8048a36:	68 08 01 00 00       	push   $0x108
 8048a3b:	e9 d0 fd ff ff       	jmp    8048810 <.plt>

08048a40 <__sprintf_chk@plt>:
 8048a40:	ff 25 94 c0 04 08    	jmp    *0x804c094
 8048a46:	68 10 01 00 00       	push   $0x110
 8048a4b:	e9 c0 fd ff ff       	jmp    8048810 <.plt>

Disassembly of section .text:

08048a50 <_start>:
 8048a50:	31 ed                	xor    %ebp,%ebp
 8048a52:	5e                   	pop    %esi
 8048a53:	89 e1                	mov    %esp,%ecx
 8048a55:	83 e4 f0             	and    $0xfffffff0,%esp
 8048a58:	50                   	push   %eax
 8048a59:	54                   	push   %esp
 8048a5a:	52                   	push   %edx
 8048a5b:	68 e0 a1 04 08       	push   $0x804a1e0
 8048a60:	68 70 a1 04 08       	push   $0x804a170
 8048a65:	51                   	push   %ecx
 8048a66:	56                   	push   %esi
 8048a67:	68 16 90 04 08       	push   $0x8049016
 8048a6c:	e8 bf fe ff ff       	call   8048930 <__libc_start_main@plt>
 8048a71:	f4                   	hlt
 8048a72:	66 90                	xchg   %ax,%ax
 8048a74:	66 90                	xchg   %ax,%ax
 8048a76:	66 90                	xchg   %ax,%ax
 8048a78:	66 90                	xchg   %ax,%ax
 8048a7a:	66 90                	xchg   %ax,%ax
 8048a7c:	66 90                	xchg   %ax,%ax
 8048a7e:	66 90                	xchg   %ax,%ax

08048a80 <__x86.get_pc_thunk.bx>:
 8048a80:	8b 1c 24             	mov    (%esp),%ebx
 8048a83:	c3                   	ret
 8048a84:	66 90                	xchg   %ax,%ax
 8048a86:	66 90                	xchg   %ax,%ax
 8048a88:	66 90                	xchg   %ax,%ax
 8048a8a:	66 90                	xchg   %ax,%ax
 8048a8c:	66 90                	xchg   %ax,%ax
 8048a8e:	66 90                	xchg   %ax,%ax

08048a90 <deregister_tm_clones>:
 8048a90:	b8 e3 d0 04 08       	mov    $0x804d0e3,%eax
 8048a95:	2d e0 d0 04 08       	sub    $0x804d0e0,%eax
 8048a9a:	83 f8 06             	cmp    $0x6,%eax
 8048a9d:	77 01                	ja     8048aa0 <deregister_tm_clones+0x10>
 8048a9f:	c3                   	ret
 8048aa0:	b8 00 00 00 00       	mov    $0x0,%eax
 8048aa5:	85 c0                	test   %eax,%eax
 8048aa7:	74 f6                	je     8048a9f <deregister_tm_clones+0xf>
 8048aa9:	55                   	push   %ebp
 8048aaa:	89 e5                	mov    %esp,%ebp
 8048aac:	83 ec 18             	sub    $0x18,%esp
 8048aaf:	c7 04 24 e0 d0 04 08 	movl   $0x804d0e0,(%esp)
 8048ab6:	ff d0                	call   *%eax
 8048ab8:	c9                   	leave
 8048ab9:	c3                   	ret
 8048aba:	8d b6 00 00 00 00    	lea    0x0(%esi),%esi

08048ac0 <register_tm_clones>:
 8048ac0:	b8 e0 d0 04 08       	mov    $0x804d0e0,%eax
 8048ac5:	2d e0 d0 04 08       	sub    $0x804d0e0,%eax
 8048aca:	c1 f8 02             	sar    $0x2,%eax
 8048acd:	89 c2                	mov    %eax,%edx
 8048acf:	c1 ea 1f             	shr    $0x1f,%edx
 8048ad2:	01 d0                	add    %edx,%eax
 8048ad4:	d1 f8                	sar    %eax
 8048ad6:	75 01                	jne    8048ad9 <register_tm_clones+0x19>
 8048ad8:	c3                   	ret
 8048ad9:	ba 00 00 00 00       	mov    $0x0,%edx
 8048ade:	85 d2                	test   %edx,%edx
 8048ae0:	74 f6                	je     8048ad8 <register_tm_clones+0x18>
 8048ae2:	55                   	push   %ebp
 8048ae3:	89 e5                	mov    %esp,%ebp
 8048ae5:	83 ec 18             	sub    $0x18,%esp
 8048ae8:	89 44 24 04          	mov    %eax,0x4(%esp)
 8048aec:	c7 04 24 e0 d0 04 08 	movl   $0x804d0e0,(%esp)
 8048af3:	ff d2                	call   *%edx
 8048af5:	c9                   	leave
 8048af6:	c3                   	ret
 8048af7:	89 f6                	mov    %esi,%esi
 8048af9:	8d bc 27 00 00 00 00 	lea    0x0(%edi,%eiz,1),%edi

08048b00 <__do_global_dtors_aux>:
 8048b00:	80 3d ec d0 04 08 00 	cmpb   $0x0,0x804d0ec
 8048b07:	75 13                	jne    8048b1c <__do_global_dtors_aux+0x1c>
 8048b09:	55                   	push   %ebp
 8048b0a:	89 e5                	mov    %esp,%ebp
 8048b0c:	83 ec 08             	sub    $0x8,%esp
 8048b0f:	e8 7c ff ff ff       	call   8048a90 <deregister_tm_clones>
 8048b14:	c6 05 ec d0 04 08 01 	movb   $0x1,0x804d0ec
 8048b1b:	c9                   	leave
 8048b1c:	f3 c3                	repz ret
 8048b1e:	66 90                	xchg   %ax,%ax

08048b20 <frame_dummy>:
 8048b20:	a1 10 bf 04 08       	mov    0x804bf10,%eax
 8048b25:	85 c0                	test   %eax,%eax
 8048b27:	74 1f                	je     8048b48 <frame_dummy+0x28>
 8048b29:	b8 00 00 00 00       	mov    $0x0,%eax
 8048b2e:	85 c0                	test   %eax,%eax
 8048b30:	74 16                	je     8048b48 <frame_dummy+0x28>
 8048b32:	55                   	push   %ebp
 8048b33:	89 e5                	mov    %esp,%ebp
 8048b35:	83 ec 18             	sub    $0x18,%esp
 8048b38:	c7 04 24 10 bf 04 08 	movl   $0x804bf10,(%esp)
 8048b3f:	ff d0                	call   *%eax
 8048b41:	c9                   	leave
 8048b42:	e9 79 ff ff ff       	jmp    8048ac0 <register_tm_clones>
 8048b47:	90                   	nop
 8048b48:	e9 73 ff ff ff       	jmp    8048ac0 <register_tm_clones>
 8048b4d:	66 90                	xchg   %ax,%ax
 8048b4f:	90                   	nop

08048b50 <bushandler>:
 8048b50:	55                   	push   %ebp
 8048b51:	89 e5                	mov    %esp,%ebp
 8048b53:	83 ec 18             	sub    $0x18,%esp
 8048b56:	c7 04 24 00 a2 04 08 	movl   $0x804a200,(%esp)
 8048b5d:	e8 5e fd ff ff       	call   80488c0 <puts@plt>
 8048b62:	c7 04 24 e0 a3 04 08 	movl   $0x804a3e0,(%esp)
 8048b69:	e8 52 fd ff ff       	call   80488c0 <puts@plt>
 8048b6e:	c7 04 24 00 00 00 00 	movl   $0x0,(%esp)
 8048b75:	e8 86 fd ff ff       	call   8048900 <exit@plt>

08048b7a <seghandler>:
 8048b7a:	55                   	push   %ebp
 8048b7b:	89 e5                	mov    %esp,%ebp
 8048b7d:	83 ec 18             	sub    $0x18,%esp
 8048b80:	c7 04 24 20 a2 04 08 	movl   $0x804a220,(%esp)
 8048b87:	e8 34 fd ff ff       	call   80488c0 <puts@plt>
 8048b8c:	c7 04 24 e0 a3 04 08 	movl   $0x804a3e0,(%esp)
 8048b93:	e8 28 fd ff ff       	call   80488c0 <puts@plt>
 8048b98:	c7 04 24 00 00 00 00 	movl   $0x0,(%esp)
 8048b9f:	e8 5c fd ff ff       	call   8048900 <exit@plt>

08048ba4 <illegalhandler>:
 8048ba4:	55                   	push   %ebp
 8048ba5:	89 e5                	mov    %esp,%ebp
 8048ba7:	83 ec 18             	sub    $0x18,%esp
 8048baa:	c7 04 24 48 a2 04 08 	movl   $0x804a248,(%esp)
 8048bb1:	e8 0a fd ff ff       	call   80488c0 <puts@plt>
 8048bb6:	c7 04 24 e0 a3 04 08 	movl   $0x804a3e0,(%esp)
 8048bbd:	e8 fe fc ff ff       	call   80488c0 <puts@plt>
 8048bc2:	c7 04 24 00 00 00 00 	movl   $0x0,(%esp)
 8048bc9:	e8 32 fd ff ff       	call   8048900 <exit@plt>

08048bce <usage>:
 8048bce:	55                   	push   %ebp
 8048bcf:	89 e5                	mov    %esp,%ebp
 8048bd1:	83 ec 18             	sub    $0x18,%esp
 8048bd4:	89 44 24 08          	mov    %eax,0x8(%esp)
 8048bd8:	c7 44 24 04 f6 a3 04 	movl   $0x804a3f6,0x4(%esp)
 8048bdf:	08
 8048be0:	c7 04 24 01 00 00 00 	movl   $0x1,(%esp)
 8048be7:	e8 d4 fd ff ff       	call   80489c0 <__printf_chk@plt>
 8048bec:	c7 04 24 14 a4 04 08 	movl   $0x804a414,(%esp)
 8048bf3:	e8 c8 fc ff ff       	call   80488c0 <puts@plt>
 8048bf8:	c7 04 24 2a a4 04 08 	movl   $0x804a42a,(%esp)
 8048bff:	e8 bc fc ff ff       	call   80488c0 <puts@plt>
 8048c04:	c7 04 24 74 a2 04 08 	movl   $0x804a274,(%esp)
 8048c0b:	e8 b0 fc ff ff       	call   80488c0 <puts@plt>
 8048c10:	c7 04 24 b0 a2 04 08 	movl   $0x804a2b0,(%esp)
 8048c17:	e8 a4 fc ff ff       	call   80488c0 <puts@plt>
 8048c1c:	c7 04 24 00 00 00 00 	movl   $0x0,(%esp)
 8048c23:	e8 d8 fc ff ff       	call   8048900 <exit@plt>

08048c28 <smoke>:
 8048c28:	55                   	push   %ebp
 8048c29:	89 e5                	mov    %esp,%ebp
 8048c2b:	83 ec 18             	sub    $0x18,%esp
 8048c2e:	c7 04 24 43 a4 04 08 	movl   $0x804a443,(%esp)
 8048c35:	e8 86 fc ff ff       	call   80488c0 <puts@plt>
 8048c3a:	c7 04 24 00 00 00 00 	movl   $0x0,(%esp)
 8048c41:	e8 d6 06 00 00       	call   804931c <validate>
 8048c46:	c7 04 24 00 00 00 00 	movl   $0x0,(%esp)
 8048c4d:	e8 ae fc ff ff       	call   8048900 <exit@plt>

08048c52 <fizz>:
 8048c52:	55                   	push   %ebp
 8048c53:	89 e5                	mov    %esp,%ebp
 8048c55:	83 ec 18             	sub    $0x18,%esp
 8048c58:	8b 45 08             	mov    0x8(%ebp),%eax
 8048c5b:	3b 05 08 d1 04 08    	cmp    0x804d108,%eax
 8048c61:	75 26                	jne    8048c89 <fizz+0x37>
 8048c63:	89 44 24 08          	mov    %eax,0x8(%esp)
 8048c67:	c7 44 24 04 5e a4 04 	movl   $0x804a45e,0x4(%esp)
 8048c6e:	08
 8048c6f:	c7 04 24 01 00 00 00 	movl   $0x1,(%esp)
 8048c76:	e8 45 fd ff ff       	call   80489c0 <__printf_chk@plt>
 8048c7b:	c7 04 24 01 00 00 00 	movl   $0x1,(%esp)
 8048c82:	e8 95 06 00 00       	call   804931c <validate>
 8048c87:	eb 18                	jmp    8048ca1 <fizz+0x4f>
 8048c89:	89 44 24 08          	mov    %eax,0x8(%esp)
 8048c8d:	c7 44 24 04 d8 a2 04 	movl   $0x804a2d8,0x4(%esp)
 8048c94:	08
 8048c95:	c7 04 24 01 00 00 00 	movl   $0x1,(%esp)
 8048c9c:	e8 1f fd ff ff       	call   80489c0 <__printf_chk@plt>
 8048ca1:	c7 04 24 00 00 00 00 	movl   $0x0,(%esp)
 8048ca8:	e8 53 fc ff ff       	call   8048900 <exit@plt>

08048cad <bang>:
 8048cad:	55                   	push   %ebp
 8048cae:	89 e5                	mov    %esp,%ebp
 8048cb0:	83 ec 18             	sub    $0x18,%esp
 8048cb3:	a1 00 d1 04 08       	mov    0x804d100,%eax
 8048cb8:	3b 05 08 d1 04 08    	cmp    0x804d108,%eax
 8048cbe:	75 26                	jne    8048ce6 <bang+0x39>
 8048cc0:	89 44 24 08          	mov    %eax,0x8(%esp)
 8048cc4:	c7 44 24 04 f8 a2 04 	movl   $0x804a2f8,0x4(%esp)
 8048ccb:	08
 8048ccc:	c7 04 24 01 00 00 00 	movl   $0x1,(%esp)
 8048cd3:	e8 e8 fc ff ff       	call   80489c0 <__printf_chk@plt>
 8048cd8:	c7 04 24 02 00 00 00 	movl   $0x2,(%esp)
 8048cdf:	e8 38 06 00 00       	call   804931c <validate>
 8048ce4:	eb 18                	jmp    8048cfe <bang+0x51>
 8048ce6:	89 44 24 08          	mov    %eax,0x8(%esp)
 8048cea:	c7 44 24 04 7c a4 04 	movl   $0x804a47c,0x4(%esp)
 8048cf1:	08
 8048cf2:	c7 04 24 01 00 00 00 	movl   $0x1,(%esp)
 8048cf9:	e8 c2 fc ff ff       	call   80489c0 <__printf_chk@plt>
 8048cfe:	c7 04 24 00 00 00 00 	movl   $0x0,(%esp)
 8048d05:	e8 f6 fb ff ff       	eall   8048900 <exit@plt>

08048d0a <Gets>:
 8048d0a:	55                   	push   %ebp
 8048d0b:	89 e5                	mov    %esp,%ebp
 8048d0d:	57                   	push   %edi
 8048d0e:	56                   	push   %esi
 8048d0f:	53                   	push   %ebx
 8048d10:	83 ec 1c             	sub    $0x1c,%esp
 8048d13:	8b 75 08             	mov    0x8(%ebp),%esi
 8048d16:	c7 05 fc d0 04 08 00 	movl   $0x0,0x804d0fc
 8048d1d:	00 00 00
 8048d20:	89 f3                	mov    %esi,%ebx
 8048d22:	eb 49                	jmp    8048d6d <Gets+0x63>
 8048d24:	83 c3 01             	add    $0x1,%ebx
 8048d27:	88 53 ff             	mov    %dl,-0x1(%ebx)
 8048d2a:	a1 fc d0 04 08       	mov    0x804d0fc,%eax
 8048d2f:	3d ff 03 00 00       	cmp    $0x3ff,%eax
 8048d34:	7f 37                	jg     8048d6d <Gets+0x63>
 8048d36:	8d 3c 40             	lea    (%eax,%eax,2),%edi
 8048d39:	89 d1                	mov    %edx,%ecx
 8048d3b:	c0 e9 04             	shr    $0x4,%cl
 8048d3e:	0f be c9             	movsbl %cl,%ecx
 8048d41:	0f b6 89 58 a5 04 08 	movzbl 0x804a558(%ecx),%ecx
 8048d48:	88 8f 40 d1 04 08    	mov    %cl,0x804d140(%edi)
 8048d4e:	83 e2 0f             	and    $0xf,%edx
 8048d51:	0f b6 92 58 a5 04 08 	movzbl 0x804a558(%edx),%edx
 8048d58:	88 97 41 d1 04 08    	mov    %dl,0x804d141(%edi)
 8048d5e:	c6 87 42 d1 04 08 20 	movb   $0x20,0x804d142(%edi)
 8048d65:	83 c0 01             	add    $0x1,%eax
 8048d68:	a3 fc d0 04 08       	mov    %eax,0x804d0fc
 8048d6d:	a1 0c d1 04 08       	mov    0x804d10c,%eax
 8048d72:	89 04 24             	mov    %eax,(%esp)
 8048d75:	e8 f6 fa ff ff       	call   8048870 <_IO_getc@plt>
 8048d7a:	89 c2                	mov    %eax,%edx
 8048d7c:	83 f8 ff             	cmp    $0xffffffff,%eax
 8048d7f:	74 05                	je     8048d86 <Gets+0x7c>
 8048d81:	83 f8 0a             	cmp    $0xa,%eax
 8048d84:	75 9e                	jne    8048d24 <Gets+0x1a>
 8048d86:	c6 03 00             	movb   $0x0,(%ebx)
 8048d89:	a1 fc d0 04 08       	mov    0x804d0fc,%eax
 8048d8e:	c6 84 40 40 d1 04 08 	movb   $0x0,0x804d140(%eax,%eax,2)
 8048d95:	00
 8048d96:	89 f0                	mov    %esi,%eax
 8048d98:	83 c4 1c             	add    $0x1c,%esp
 8048d9b:	5b                   	pop    %ebx
 8048d9c:	5e                   	pop    %esi
 8048d9d:	5f                   	pop    %edi
 8048d9e:	5d                   	pop    %ebp
 8048d9f:	c3                   	ret

08048da0 <uniqueval>:
 8048da0:	55                   	push   %ebp
 8048da1:	89 e5                	mov    %esp,%ebp
 8048da3:	83 ec 18             	sub    $0x18,%esp
 8048da6:	e8 f5 fa ff ff       	call   80488a0 <getpid@plt>
 8048dab:	89 04 24             	mov    %eax,(%esp)
 8048dae:	e8 7d fa ff ff       	call   8048830 <srandom@plt>
 8048db3:	e8 38 fc ff ff       	call   80489f0 <random@plt>
 8048db8:	c9                   	leave
 8048db9:	c3                   	ret

08048dba <test>:
 8048dba:	55                   	push   %ebp
 8048dbb:	89 e5                	mov    %esp,%ebp
 8048dbd:	53                   	push   %ebx
 8048dbe:	83 ec 24             	sub    $0x24,%esp
 8048dc1:	e8 da ff ff ff       	call   8048da0 <uniqueval>
 8048dc6:	89 45 f4             	mov    %eax,-0xc(%ebp)
 8048dc9:	e8 23 04 00 00       	call   80491f1 <getbuf>  // here!!!

 8048dce:	89 c3                	mov    %eax,%ebx
 8048dd0:	e8 cb ff ff ff       	call   8048da0 <uniqueval>
 8048dd5:	8b 55 f4             	mov    -0xc(%ebp),%edx
 8048dd8:	39 d0                	cmp    %edx,%eax
 8048dda:	74 0e                	je     8048dea <test+0x30>
 8048ddc:	c7 04 24 20 a3 04 08 	movl   $0x804a320,(%esp)
 8048de3:	e8 d8 fa ff ff       	call   80488c0 <puts@plt>
 8048de8:	eb 46                	jmp    8048e30 <test+0x76>
 8048dea:	3b 1d 08 d1 04 08    	cmp    0x804d108,%ebx
 8048df0:	75 26                	jne    8048e18 <test+0x5e>
 8048df2:	89 5c 24 08          	mov    %ebx,0x8(%esp)
 8048df6:	c7 44 24 04 9a a4 04 	movl   $0x804a49a,0x4(%esp)
 8048dfd:	08
 8048dfe:	c7 04 24 01 00 00 00 	movl   $0x1,(%esp)
 8048e05:	e8 b6 fb ff ff       	call   80489c0 <__printf_chk@plt>
 8048e0a:	c7 04 24 03 00 00 00 	movl   $0x3,(%esp)
 8048e11:	e8 06 05 00 00       	call   804931c <validate>
 8048e16:	eb 18                	jmp    8048e30 <test+0x76>
 8048e18:	89 5c 24 08          	mov    %ebx,0x8(%esp)
 8048e1c:	c7 44 24 04 b7 a4 04 	movl   $0x804a4b7,0x4(%esp)
 8048e23:	08
 8048e24:	c7 04 24 01 00 00 00 	movl   $0x1,(%esp)
 8048e2b:	e8 90 fb ff ff       	call   80489c0 <__printf_chk@plt>
 8048e30:	83 c4 24             	add    $0x24,%esp
 8048e33:	5b                   	pop    %ebx
 8048e34:	5d                   	pop    %ebp
 8048e35:	c3                   	ret

08048e36 <testn>:
 8048e36:	55                   	push   %ebp
 8048e37:	89 e5                	mov    %esp,%ebp
 8048e39:	53                   	push   %ebx
 8048e3a:	83 ec 24             	sub    $0x24,%esp
 8048e3d:	e8 5e ff ff ff       	call   8048da0 <uniqueval>
 8048e42:	89 45 f4             	mov    %eax,-0xc(%ebp)

 8048e45:	e8 bf 03 00 00       	call   8049209 <getbufn>
 8048e4a:	89 c3                	mov    %eax,%ebx
 8048e4c:	e8 4f ff ff ff       	call   8048da0 <uniqueval>
 8048e51:	8b 55 f4             	mov    -0xc(%ebp),%edx
 8048e54:	39 d0                	cmp    %edx,%eax
 8048e56:	74 0e                	je     8048e66 <testn+0x30>
 8048e58:	c7 04 24 20 a3 04 08 	movl   $0x804a320,(%esp)
 8048e5f:	e8 5c fa ff ff       	call   80488c0 <puts@plt>
 8048e64:	eb 46                	jmp    8048eac <testn+0x76>
 8048e66:	3b 1d 08 d1 04 08    	cmp    0x804d108,%ebx
 8048e6c:	75 26                	jne    8048e94 <testn+0x5e>
 8048e6e:	89 5c 24 08          	mov    %ebx,0x8(%esp)
 8048e72:	c7 44 24 04 4c a3 04 	movl   $0x804a34c,0x4(%esp)
 8048e79:	08
 8048e7a:	c7 04 24 01 00 00 00 	movl   $0x1,(%esp)
 8048e81:	e8 3a fb ff ff       	call   80489c0 <__printf_chk@plt>
 8048e86:	c7 04 24 04 00 00 00 	movl   $0x4,(%esp)
 8048e8d:	e8 8a 04 00 00       	call   804931c <validate>
 8048e92:	eb 18                	jmp    8048eac <testn+0x76>
 8048e94:	89 5c 24 08          	mov    %ebx,0x8(%esp)
 8048e98:	c7 44 24 04 d2 a4 04 	movl   $0x804a4d2,0x4(%esp)
 8048e9f:	08
 8048ea0:	c7 04 24 01 00 00 00 	movl   $0x1,(%esp)
 8048ea7:	e8 14 fb ff ff       	call   80489c0 <__printf_chk@plt>
 8048eac:	83 c4 24             	add    $0x24,%esp
 8048eaf:	5b                   	pop    %ebx
 8048eb0:	5d                   	pop    %ebp
 8048eb1:	c3                   	ret

08048eb2 <launch>:
 8048eb2:	55                   	push   %ebp
 8048eb3:	89 e5                	mov    %esp,%ebp
 8048eb5:	53                   	push   %ebx
 8048eb6:	83 ec 64             	sub    $0x64,%esp
 8048eb9:	89 c3                	mov    %eax,%ebx
 8048ebb:	65 a1 14 00 00 00    	mov    %gs:0x14,%eax
 8048ec1:	89 45 f4             	mov    %eax,-0xc(%ebp)
 8048ec4:	31 c0                	xor    %eax,%eax
 8048ec6:	8d 4d b4             	lea    -0x4c(%ebp),%ecx
 8048ec9:	81 e1 f0 3f 00 00    	and    $0x3ff0,%ecx
 8048ecf:	8d 44 11 1e          	lea    0x1e(%ecx,%edx,1),%eax
 8048ed3:	83 e0 f0             	and    $0xfffffff0,%eax
 8048ed6:	29 c4                	sub    %eax,%esp
 8048ed8:	8d 44 24 1b          	lea    0x1b(%esp),%eax
 8048edc:	83 e0 f0             	and    $0xfffffff0,%eax
 8048edf:	89 4c 24 08          	mov    %ecx,0x8(%esp)
 8048ee3:	c7 44 24 04 f4 00 00 	movl   $0xf4,0x4(%esp)
 8048eea:	00
 8048eeb:	89 04 24             	mov    %eax,(%esp)
 8048eee:	e8 8d fa ff ff       	call   8048980 <memset@plt>
 8048ef3:	c7 44 24 04 ee a4 04 	movl   $0x804a4ee,0x4(%esp)
 8048efa:	08
 8048efb:	c7 04 24 01 00 00 00 	movl   $0x1,(%esp)
 8048f02:	e8 b9 fa ff ff       	call   80489c0 <__printf_chk@plt>
 8048f07:	85 db                	test   %ebx,%ebx
 8048f09:	74 07                	je     8048f12 <launch+0x60>
 8048f0b:	e8 26 ff ff ff       	call   8048e36 <testn>

 8048f10:	eb 05                	jmp    8048f17 <launch+0x65>
 8048f12:	e8 a3 fe ff ff       	call   8048dba <test>
 8048f17:	83 3d 04 d1 04 08 00 	cmpl   $0x0,0x804d104
 8048f1e:	75 16                	jne    8048f36 <launch+0x84>
 8048f20:	c7 04 24 e0 a3 04 08 	movl   $0x804a3e0,(%esp)
 8048f27:	e8 94 f9 ff ff       	call   80488c0 <puts@plt>
 8048f2c:	c7 05 04 d1 04 08 00 	movl   $0x0,0x804d104
 8048f33:	00 00 00
 8048f36:	8b 45 f4             	mov    -0xc(%ebp),%eax
 8048f39:	65 33 05 14 00 00 00 	xor    %gs:0x14,%eax
 8048f40:	74 05                	je     8048f47 <launch+0x95>
 8048f42:	e8 19 f9 ff ff       	call   8048860 <__stack_chk_fail@plt>
 8048f47:	8b 5d fc             	mov    -0x4(%ebp),%ebx
 8048f4a:	c9                   	leave
 8048f4b:	c3                   	ret

08048f4c <launcher>:
 8048f4c:	55                   	push   %ebp
 8048f4d:	89 e5                	mov    %esp,%ebp
 8048f4f:	83 ec 28             	sub    $0x28,%esp
 8048f52:	8b 45 08             	mov    0x8(%ebp),%eax
 8048f55:	a3 f8 d0 04 08       	mov    %eax,0x804d0f8
 8048f5a:	8b 45 0c             	mov    0xc(%ebp),%eax
 8048f5d:	a3 f4 d0 04 08       	mov    %eax,0x804d0f4
 8048f62:	c7 44 24 14 00 00 00 	movl   $0x0,0x14(%esp)
 8048f69:	00
 8048f6a:	c7 44 24 10 00 00 00 	movl   $0x0,0x10(%esp)
 8048f71:	00
 8048f72:	c7 44 24 0c 32 01 00 	movl   $0x132,0xc(%esp)
 8048f79:	00
 8048f7a:	c7 44 24 08 07 00 00 	movl   $0x7,0x8(%esp)
 8048f81:	00
 8048f82:	c7 44 24 04 00 00 10 	movl   $0x100000,0x4(%esp)
 8048f89:	00
 8048f8a:	c7 04 24 00 60 58 55 	movl   $0x55586000,(%esp)
 8048f91:	e8 8a f9 ff ff       	call   8048920 <mmap@plt>
 8048f96:	3d 00 60 58 55       	cmp    $0x55586000,%eax
 8048f9b:	74 31                	je     8048fce <launcher+0x82>
 8048f9d:	a1 e0 d0 04 08       	mov    0x804d0e0,%eax
 8048fa2:	89 44 24 0c          	mov    %eax,0xc(%esp)
 8048fa6:	c7 44 24 08 47 00 00 	movl   $0x47,0x8(%esp)
 8048fad:	00
 8048fae:	c7 44 24 04 01 00 00 	movl   $0x1,0x4(%esp)
 8048fb5:	00
 8048fb6:	c7 04 24 6c a3 04 08 	movl   $0x804a36c,(%esp)
 8048fbd:	e8 be f8 ff ff       	call   8048880 <fwrite@plt>
 8048fc2:	c7 04 24 01 00 00 00 	movl   $0x1,(%esp)
 8048fc9:	e8 32 f9 ff ff       	call   8048900 <exit@plt>
 8048fce:	c7 05 20 d1 04 08 f8 	movl   $0x55685ff8,0x804d120
 8048fd5:	5f 68 55
 8048fd8:	ba f8 5f 68 55       	mov    $0x55685ff8,%edx
 8048fdd:	89 e0                	mov    %esp,%eax
 8048fdf:	89 d4                	mov    %edx,%esp
 8048fe1:	89 c2                	mov    %eax,%edx
 8048fe3:	89 15 f0 d0 04 08    	mov    %edx,0x804d0f0
 8048fe9:	8b 15 f4 d0 04 08    	mov    0x804d0f4,%edx
 8048fef:	a1 f8 d0 04 08       	mov    0x804d0f8,%eax
 8048ff4:	e8 b9 fe ff ff       	call   8048eb2 <launch>
 8048ff9:	a1 f0 d0 04 08       	mov    0x804d0f0,%eax
 8048ffe:	89 c4                	mov    %eax,%esp
 8049000:	c7 44 24 04 00 00 10 	movl   $0x100000,0x4(%esp)
 8049007:	00
 8049008:	c7 04 24 00 60 58 55 	movl   $0x55586000,(%esp)
 804900f:	e8 bc f9 ff ff       	call   80489d0 <munmap@plt>
 8049014:	c9                   	leave
 8049015:	c3                   	ret

08049016 <main>:
 8049016:	55                   	push   %ebp
 8049017:	89 e5                	mov    %esp,%ebp
 8049019:	57                   	push   %edi
 804901a:	56                   	push   %esi
 804901b:	53                   	push   %ebx
 804901c:	83 e4 f0             	and    $0xfffffff0,%esp
 804901f:	83 ec 20             	sub    $0x20,%esp
 8049022:	8b 75 08             	mov    0x8(%ebp),%esi
 8049025:	8b 5d 0c             	mov    0xc(%ebp),%ebx
 8049028:	c7 44 24 04 7a 8b 04 	movl   $0x8048b7a,0x4(%esp)
 804902f:	08
 8049030:	c7 04 24 0b 00 00 00 	movl   $0xb,(%esp)
 8049037:	e8 04 f8 ff ff       	call   8048840 <signal@plt>
 804903c:	c7 44 24 04 50 8b 04 	movl   $0x8048b50,0x4(%esp)
 8049043:	08
 8049044:	c7 04 24 07 00 00 00 	movl   $0x7,(%esp)
 804904b:	e8 f0 f7 ff ff       	call   8048840 <signal@plt>
 8049050:	c7 44 24 04 a4 8b 04 	movl   $0x8048ba4,0x4(%esp)
 8049057:	08
 8049058:	c7 04 24 04 00 00 00 	movl   $0x4,(%esp)
 804905f:	e8 dc f7 ff ff       	call   8048840 <signal@plt>
 8049064:	a1 e4 d0 04 08       	mov    0x804d0e4,%eax
 8049069:	a3 0c d1 04 08       	mov    %eax,0x804d10c
 804906e:	bf 01 00 00 00       	mov    $0x1,%edi
 8049073:	c7 44 24 1c 00 00 00 	movl   $0x0,0x1c(%esp)
 804907a:	00
 804907b:	eb 67                	jmp    80490e4 <main+0xce>
 804907d:	83 e8 67             	sub    $0x67,%eax
 8049080:	3c 0e                	cmp    $0xe,%al
 8049082:	77 59                	ja     80490dd <main+0xc7>
 8049084:	0f b6 c0             	movzbl %al,%eax
 8049087:	ff 24 85 1c a5 04 08 	jmp    *0x804a51c(,%eax,4)
 804908e:	c7 44 24 1c 01 00 00 	movl   $0x1,0x1c(%esp)
 8049095:	00
 8049096:	bf 05 00 00 00       	mov    $0x5,%edi
 804909b:	eb 47                	jmp    80490e4 <main+0xce>
 804909d:	8b 03                	mov    (%ebx),%eax
 804909f:	e8 2a fb ff ff       	call   8048bce <usage>
 80490a4:	a1 e8 d0 04 08       	mov    0x804d0e8,%eax
 80490a9:	89 04 24             	mov    %eax,(%esp)
 80490ac:	e8 df f8 ff ff       	call   8048990 <__strdup@plt>
 80490b1:	a3 18 d1 04 08       	mov    %eax,0x804d118
 80490b6:	89 04 24             	mov    %eax,(%esp)
 80490b9:	e8 7d 10 00 00       	call   804a13b <gencookie>
 80490be:	a3 08 d1 04 08       	mov    %eax,0x804d108
 80490c3:	eb 1f                	jmp    80490e4 <main+0xce>
 80490c5:	c7 05 14 d1 04 08 01 	movl   $0x1,0x804d114
 80490cc:	00 00 00
 80490cf:	eb 13                	jmp    80490e4 <main+0xce>
 80490d1:	c7 05 10 d1 04 08 01 	movl   $0x1,0x804d110
 80490d8:	00 00 00
 80490db:	eb 07                	jmp    80490e4 <main+0xce>
 80490dd:	8b 03                	mov    (%ebx),%eax
 80490df:	e8 ea fa ff ff       	call   8048bce <usage>
 80490e4:	c7 44 24 08 fb a4 04 	movl   $0x804a4fb,0x8(%esp)
 80490eb:	08
 80490ec:	89 5c 24 04          	mov    %ebx,0x4(%esp)
 80490f0:	89 34 24             	mov    %esi,(%esp)
 80490f3:	e8 58 f8 ff ff       	call   8048950 <getopt@plt>
 80490f8:	3c ff                	cmp    $0xff,%al
 80490fa:	75 81                	jne    804907d <main+0x67>
 80490fc:	83 3d 18 d1 04 08 00 	cmpl   $0x0,0x804d118
 8049103:	75 21                	jne    8049126 <main+0x110>
 8049105:	8b 03                	mov    (%ebx),%eax
 8049107:	89 44 24 08          	mov    %eax,0x8(%esp)
 804910b:	c7 44 24 04 b4 a3 04 	movl   $0x804a3b4,0x4(%esp)
 8049112:	08
 8049113:	c7 04 24 01 00 00 00 	movl   $0x1,(%esp)
 804911a:	e8 a1 f8 ff ff       	call   80489c0 <__printf_chk@plt>
 804911f:	8b 03                	mov    (%ebx),%eax
 8049121:	e8 a8 fa ff ff       	call   8048bce <usage>
 8049126:	e8 fc 00 00 00       	call   8049227 <initialize_bomb>
 804912b:	a1 18 d1 04 08       	mov    0x804d118,%eax
 8049130:	89 44 24 08          	mov    %eax,0x8(%esp)
 8049134:	c7 44 24 04 02 a5 04 	movl   $0x804a502,0x4(%esp)
 804913b:	08
 804913c:	c7 04 24 01 00 00 00 	movl   $0x1,(%esp)
 8049143:	e8 78 f8 ff ff       	call   80489c0 <__printf_chk@plt>
 8049148:	a1 08 d1 04 08       	mov    0x804d108,%eax
 804914d:	89 44 24 08          	mov    %eax,0x8(%esp)
 8049151:	c7 44 24 04 0e a5 04 	movl   $0x804a50e,0x4(%esp)
 8049158:	08
 8049159:	c7 04 24 01 00 00 00 	movl   $0x1,(%esp)
 8049160:	e8 5b f8 ff ff       	call   80489c0 <__printf_chk@plt>
 8049165:	a1 08 d1 04 08       	mov    0x804d108,%eax
 804916a:	89 04 24             	mov    %eax,(%esp)
 804916d:	e8 be f6 ff ff       	call   8048830 <srandom@plt>
 8049172:	e8 79 f8 ff ff       	call   80489f0 <random@plt>
 8049177:	25 f0 0f 00 00       	and    $0xff0,%eax
 804917c:	05 00 01 00 00       	add    $0x100,%eax
 8049181:	89 44 24 18          	mov    %eax,0x18(%esp)
 8049185:	c7 44 24 04 04 00 00 	movl   $0x4,0x4(%esp)
 804918c:	00
 804918d:	89 3c 24             	mov    %edi,(%esp)
 8049190:	e8 9b f8 ff ff       	call   8048a30 <calloc@plt>
 8049195:	89 c6                	mov    %eax,%esi
 8049197:	c7 00 00 00 00 00    	movl   $0x0,(%eax)
 804919d:	bb 01 00 00 00       	mov    $0x1,%ebx
 80491a2:	eb 17                	jmp    80491bb <main+0x1a5>
 80491a4:	e8 47 f8 ff ff       	call   80489f0 <random@plt>
 80491a9:	25 f0 00 00 00       	and    $0xf0,%eax
 80491ae:	ba 80 00 00 00       	mov    $0x80,%edx
 80491b3:	29 c2                	sub    %eax,%edx
 80491b5:	89 14 9e             	mov    %edx,(%esi,%ebx,4)
 80491b8:	83 c3 01             	add    $0x1,%ebx
 80491bb:	39 fb                	cmp    %edi,%ebx
 80491bd:	7c e5                	jl     80491a4 <main+0x18e>
 80491bf:	bb 00 00 00 00       	mov    $0x0,%ebx
 80491c4:	eb 1a                	jmp    80491e0 <main+0x1ca>
 80491c6:	8b 44 24 18          	mov    0x18(%esp),%eax
 80491ca:	03 04 9e             	add    (%esi,%ebx,4),%eax
 80491cd:	89 44 24 04          	mov    %eax,0x4(%esp)
 80491d1:	8b 44 24 1c          	mov    0x1c(%esp),%eax
 80491d5:	89 04 24             	mov    %eax,(%esp)
 80491d8:	e8 6f fd ff ff       	call   8048f4c <launcher>
 80491dd:	83 c3 01             	add    $0x1,%ebx
 80491e0:	39 fb                	cmp    %edi,%ebx
 80491e2:	7c e2                	jl     80491c6 <main+0x1b0>
 80491e4:	b8 00 00 00 00       	mov    $0x0,%eax
 80491e9:	8d 65 f4             	lea    -0xc(%ebp),%esp
 80491ec:	5b                   	pop    %ebx
 80491ed:	5e                   	pop    %esi
 80491ee:	5f                   	pop    %edi
 80491ef:	5d                   	pop    %ebp
 80491f0:	c3                   	ret

080491f1 <getbuf>:
 80491f1:	55                   	push   %ebp
 80491f2:	89 e5                	mov    %esp,%ebp
 80491f4:	83 ec 38             	sub    $0x38,%esp
 80491f7:	8d 45 d8             	lea    -0x28(%ebp),%eax

 80491fa:	89 04 24             	mov    %eax,(%esp)
 80491fd:	e8 08 fb ff ff       	call   8048d0a <Gets>
 8049202:	b8 01 00 00 00       	mov    $0x1,%eax
 8049207:	c9                   	leave
 8049208:	c3                   	ret

08049209 <getbufn>:
 8049209:	55                   	push   %ebp
 804920a:	89 e5                	mov    %esp,%ebp
 804920c:	81 ec 18 02 00 00    	sub    $0x218,%esp
 8049212:	8d 85 f8 fd ff ff    	lea    -0x208(%ebp),%eax
 8049218:	89 04 24             	mov    %eax,(%esp)
 804921b:	e8 ea fa ff ff       	call   8048d0a <Gets>
 8049220:	b8 01 00 00 00       	mov    $0x1,%eax
 8049225:	c9                   	leave
 8049226:	c3                   	ret

08049227 <initialize_bomb>:
 8049227:	55                   	push   %ebp
 8049228:	89 e5                	mov    %esp,%ebp
 804922a:	56                   	push   %esi
 804922b:	53                   	push   %ebx
 804922c:	81 ec 20 24 00 00    	sub    $0x2420,%esp
 8049232:	65 a1 14 00 00 00    	mov    %gs:0x14,%eax
 8049238:	89 45 f4             	mov    %eax,-0xc(%ebp)
 804923b:	31 c0                	xor    %eax,%eax
 804923d:	83 3d 10 d1 04 08 00 	cmpl   $0x0,0x804d110
 8049244:	74 0c                	je     8049252 <initialize_bomb+0x2b>
 8049246:	c7 04 24 ff ff ff ff 	movl   $0xffffffff,(%esp)
 804924d:	e8 cc 0b 00 00       	call   8049e1e <init_timeout>
 8049252:	83 3d 14 d1 04 08 00 	cmpl   $0x0,0x804d114
 8049259:	0f 84 a2 00 00 00    	je     8049301 <initialize_bomb+0xda>
 804925f:	c7 44 24 04 00 04 00 	movl   $0x400,0x4(%esp)
 8049266:	00
 8049267:	8d 85 f4 db ff ff    	lea    -0x240c(%ebp),%eax
 804926d:	89 04 24             	mov    %eax,(%esp)
 8049270:	e8 3b f6 ff ff       	call   80488b0 <gethostname@plt>
 8049275:	85 c0                	test   %eax,%eax
 8049277:	75 16                	jne    804928f <initialize_bomb+0x68>
 8049279:	a1 e0 c0 04 08       	mov    0x804c0e0,%eax
 804927e:	bb 00 00 00 00       	mov    $0x0,%ebx
 8049283:	8d b5 f4 db ff ff    	lea    -0x240c(%ebp),%esi
 8049289:	85 c0                	test   %eax,%eax
 804928b:	75 1a                	jne    80492a7 <initialize_bomb+0x80>
 804928d:	eb 36                	jmp    80492c5 <initialize_bomb+0x9e>
 804928f:	c7 04 24 68 a5 04 08 	movl   $0x804a568,(%esp)
 8049296:	e8 25 f6 ff ff       	call   80488c0 <puts@plt>
 804929b:	c7 04 24 08 00 00 00 	movl   $0x8,(%esp)
 80492a2:	e8 59 f6 ff ff       	call   8048900 <exit@plt>
 80492a7:	89 74 24 04          	mov    %esi,0x4(%esp)
 80492ab:	89 04 24             	mov    %eax,(%esp)
 80492ae:	e8 ad f6 ff ff       	call   8048960 <strcasecmp@plt>
 80492b3:	85 c0                	test   %eax,%eax
 80492b5:	74 0e                	je     80492c5 <initialize_bomb+0x9e>
 80492b7:	83 c3 01             	add    $0x1,%ebx
 80492ba:	8b 04 9d e0 c0 04 08 	mov    0x804c0e0(,%ebx,4),%eax
 80492c1:	85 c0                	test   %eax,%eax
 80492c3:	75 e2                	jne    80492a7 <initialize_bomb+0x80>
 80492c5:	8d 85 f4 df ff ff    	lea    -0x200c(%ebp),%eax
 80492cb:	89 04 24             	mov    %eax,(%esp)
 80492ce:	e8 85 0b 00 00       	call   8049e58 <init_driver>
 80492d3:	85 c0                	test   %eax,%eax
 80492d5:	79 2a                	jns    8049301 <initialize_bomb+0xda>
 80492d7:	8d 85 f4 df ff ff    	lea    -0x200c(%ebp),%eax
 80492dd:	89 44 24 08          	mov    %eax,0x8(%esp)
 80492e1:	c7 44 24 04 9a a6 04 	movl   $0x804a69a,0x4(%esp)
 80492e8:	08
 80492e9:	c7 04 24 01 00 00 00 	movl   $0x1,(%esp)
 80492f0:	e8 cb f6 ff ff       	call   80489c0 <__printf_chk@plt>
 80492f5:	c7 04 24 08 00 00 00 	movl   $0x8,(%esp)
 80492fc:	e8 ff f5 ff ff       	call   8048900 <exit@plt>
 8049301:	8b 45 f4             	mov    -0xc(%ebp),%eax
 8049304:	65 33 05 14 00 00 00 	xor    %gs:0x14,%eax
 804930b:	74 05                	je     8049312 <initialize_bomb+0xeb>
 804930d:	e8 4e f5 ff ff       	call   8048860 <__stack_chk_fail@plt>
 8049312:	81 c4 20 24 00 00    	add    $0x2420,%esp
 8049318:	5b                   	pop    %ebx
 8049319:	5e                   	pop    %esi
 804931a:	5d                   	pop    %ebp
 804931b:	c3                   	ret

0804931c <validate>:
 804931c:	55                   	push   %ebp
 804931d:	89 e5                	mov    %esp,%ebp
 804931f:	57                   	push   %edi
 8049320:	53                   	push   %ebx
 8049321:	81 ec 30 40 00 00    	sub    $0x4030,%esp
 8049327:	8b 5d 08             	mov    0x8(%ebp),%ebx
 804932a:	65 a1 14 00 00 00    	mov    %gs:0x14,%eax
 8049330:	89 45 f4             	mov    %eax,-0xc(%ebp)
 8049333:	31 c0                	xor    %eax,%eax
 8049335:	83 3d 18 d1 04 08 00 	cmpl   $0x0,0x804d118
 804933c:	75 11                	jne    804934f <validate+0x33>
 804933e:	c7 04 24 a0 a5 04 08 	movl   $0x804a5a0,(%esp)
 8049345:	e8 76 f5 ff ff       	call   80488c0 <puts@plt>
 804934a:	e9 2c 01 00 00       	jmp    804947b <validate+0x15f>
 804934f:	83 fb 04             	cmp    $0x4,%ebx
 8049352:	76 11                	jbe    8049365 <validate+0x49>
 8049354:	c7 04 24 cc a5 04 08 	movl   $0x804a5cc,(%esp)
 804935b:	e8 60 f5 ff ff       	call   80488c0 <puts@plt>
 8049360:	e9 16 01 00 00       	jmp    804947b <validate+0x15f>
 8049365:	c7 05 04 d1 04 08 01 	movl   $0x1,0x804d104
 804936c:	00 00 00
 804936f:	8b 04 9d c0 c0 04 08 	mov    0x804c0c0(,%ebx,4),%eax
 8049376:	83 e8 01             	sub    $0x1,%eax
 8049379:	89 04 9d c0 c0 04 08 	mov    %eax,0x804c0c0(,%ebx,4)
 8049380:	85 c0                	test   %eax,%eax
 8049382:	7e 11                	jle    8049395 <validate+0x79>
 8049384:	c7 04 24 af a6 04 08 	movl   $0x804a6af,(%esp)
 804938b:	e8 30 f5 ff ff       	call   80488c0 <puts@plt>
 8049390:	e9 e6 00 00 00       	jmp    804947b <validate+0x15f>
 8049395:	c7 04 24 ba a6 04 08 	movl   $0x804a6ba,(%esp)
 804939c:	e8 1f f5 ff ff       	call   80488c0 <puts@plt>
 80493a1:	83 3d 14 d1 04 08 00 	cmpl   $0x0,0x804d114
 80493a8:	0f 84 c1 00 00 00    	je     804946f <validate+0x153>
 80493ae:	bf 40 d1 04 08       	mov    $0x804d140,%edi
 80493b3:	b8 00 00 00 00       	mov    $0x0,%eax
 80493b8:	b9 ff ff ff ff       	mov    $0xffffffff,%ecx
 80493bd:	f2 ae                	repnz scas %es:(%edi),%al
 80493bf:	89 ca                	mov    %ecx,%edx
 80493c1:	f7 d2                	not    %edx
 80493c3:	89 d1                	mov    %edx,%ecx
 80493c5:	83 c1 1f             	add    $0x1f,%ecx
 80493c8:	81 f9 00 20 00 00    	cmp    $0x2000,%ecx
 80493ce:	76 11                	jbe    80493e1 <validate+0xc5>
 80493d0:	c7 04 24 f4 a5 04 08 	movl   $0x804a5f4,(%esp)
 80493d7:	e8 e4 f4 ff ff       	call   80488c0 <puts@plt>
 80493dc:	e9 9a 00 00 00       	jmp    804947b <validate+0x15f>
 80493e1:	c7 44 24 18 40 d1 04 	movl   $0x804d140,0x18(%esp)
 80493e8:	08
 80493e9:	a1 08 d1 04 08       	mov    0x804d108,%eax
 80493ee:	89 44 24 14          	mov    %eax,0x14(%esp)
 80493f2:	89 5c 24 10          	mov    %ebx,0x10(%esp)
 80493f6:	c7 44 24 0c c0 a6 04 	movl   $0x804a6c0,0xc(%esp)
 80493fd:	08
 80493fe:	c7 44 24 08 00 20 00 	movl   $0x2000,0x8(%esp)
 8049405:	00
 8049406:	c7 44 24 04 01 00 00 	movl   $0x1,0x4(%esp)
 804940d:	00
 804940e:	8d 9d f4 bf ff ff    	lea    -0x400c(%ebp),%ebx
 8049414:	89 1c 24             	mov    %ebx,(%esp)
 8049417:	e8 24 f6 ff ff       	call   8048a40 <__sprintf_chk@plt>
 804941c:	8d 85 f4 df ff ff    	lea    -0x200c(%ebp),%eax
 8049422:	89 44 24 0c          	mov    %eax,0xc(%esp)
 8049426:	c7 44 24 08 00 00 00 	movl   $0x0,0x8(%esp)
 804942d:	00
 804942e:	89 5c 24 04          	mov    %ebx,0x4(%esp)
 8049432:	a1 18 d1 04 08       	mov    0x804d118,%eax
 8049437:	89 04 24             	mov    %eax,(%esp)
 804943a:	e8 fa 0b 00 00       	call   804a039 <driver_post>
 804943f:	85 c0                	test   %eax,%eax
 8049441:	75 0e                	jne    8049451 <validate+0x135>
 8049443:	c7 04 24 2c a6 04 08 	movl   $0x804a62c,(%esp)
 804944a:	e8 71 f4 ff ff       	call   80488c0 <puts@plt>
 804944f:	eb 1e                	jmp    804946f <validate+0x153>
 8049451:	8d 85 f4 df ff ff    	lea    -0x200c(%ebp),%eax
 8049457:	89 44 24 08          	mov    %eax,0x8(%esp)
 804945b:	c7 44 24 04 5c a6 04 	movl   $0x804a65c,0x4(%esp)
 8049462:	08
 8049463:	c7 04 24 01 00 00 00 	movl   $0x1,(%esp)
 804946a:	e8 51 f5 ff ff       	call   80489c0 <__printf_chk@plt>
 804946f:	c7 04 24 c9 a6 04 08 	movl   $0x804a6c9,(%esp)
 8049476:	e8 45 f4 ff ff       	call   80488c0 <puts@plt>
 804947b:	8b 45 f4             	mov    -0xc(%ebp),%eax
 804947e:	65 33 05 14 00 00 00 	xor    %gs:0x14,%eax
 8049485:	74 05                	je     804948c <validate+0x170>
 8049487:	e8 d4 f3 ff ff       	call   8048860 <__stack_chk_fail@plt>
 804948c:	81 c4 30 40 00 00    	add    $0x4030,%esp
 8049492:	5b                   	pop    %ebx
 8049493:	5f                   	pop    %edi
 8049494:	5d                   	pop    %ebp
 8049495:	c3                   	ret
 8049496:	66 90                	xchg   %ax,%ax
 8049498:	66 90                	xchg   %ax,%ax
 804949a:	66 90                	xchg   %ax,%ax
 804949c:	66 90                	xchg   %ax,%ax
 804949e:	66 90                	xchg   %ax,%ax

080494a0 <sigalrm_handler>:
 80494a0:	55                   	push   %ebp
 80494a1:	89 e5                	mov    %esp,%ebp
 80494a3:	83 ec 18             	sub    $0x18,%esp
 80494a6:	c7 44 24 08 02 00 00 	movl   $0x2,0x8(%esp)
 80494ad:	00
 80494ae:	c7 44 24 04 38 a7 04 	movl   $0x804a738,0x4(%esp)
 80494b5:	08
 80494b6:	c7 04 24 01 00 00 00 	movl   $0x1,(%esp)
 80494bd:	e8 fe f4 ff ff       	call   80489c0 <__printf_chk@plt>
 80494c2:	c7 04 24 01 00 00 00 	movl   $0x1,(%esp)
 80494c9:	e8 32 f4 ff ff       	call   8048900 <exit@plt>

080494ce <rio_readlineb>:
 80494ce:	55                   	push   %ebp
 80494cf:	89 e5                	mov    %esp,%ebp
 80494d1:	57                   	push   %edi
 80494d2:	56                   	push   %esi
 80494d3:	53                   	push   %ebx
 80494d4:	83 ec 4c             	sub    $0x4c,%esp
 80494d7:	89 55 d0             	mov    %edx,-0x30(%ebp)
 80494da:	83 f9 01             	cmp    $0x1,%ecx
 80494dd:	0f 86 c8 00 00 00    	jbe    80495ab <rio_readlineb+0xdd>
 80494e3:	89 c3                	mov    %eax,%ebx
 80494e5:	89 4d c4             	mov    %ecx,-0x3c(%ebp)
 80494e8:	c7 45 d4 01 00 00 00 	movl   $0x1,-0x2c(%ebp)
 80494ef:	8d 78 0c             	lea    0xc(%eax),%edi
 80494f2:	eb 38                	jmp    804952c <rio_readlineb+0x5e>
 80494f4:	c7 44 24 08 00 20 00 	movl   $0x2000,0x8(%esp)
 80494fb:	00
 80494fc:	89 7c 24 04          	mov    %edi,0x4(%esp)
 8049500:	8b 03                	mov    (%ebx),%eax
 8049502:	89 04 24             	mov    %eax,(%esp)
 8049505:	e8 16 f3 ff ff       	call   8048820 <read@plt>
 804950a:	89 43 04             	mov    %eax,0x4(%ebx)
 804950d:	85 c0                	test   %eax,%eax
 804950f:	79 14                	jns    8049525 <rio_readlineb+0x57>
 8049511:	e8 8a f4 ff ff       	call   80489a0 <__errno_location@plt>
 8049516:	83 38 04             	cmpl   $0x4,(%eax)
 8049519:	74 11                	je     804952c <rio_readlineb+0x5e>
 804951b:	90                   	nop
 804951c:	8d 74 26 00          	lea    0x0(%esi,%eiz,1),%esi
 8049520:	e9 98 00 00 00       	jmp    80495bd <rio_readlineb+0xef>
 8049525:	85 c0                	test   %eax,%eax
 8049527:	74 6a                	je     8049593 <rio_readlineb+0xc5>
 8049529:	89 7b 08             	mov    %edi,0x8(%ebx)
 804952c:	8b 73 04             	mov    0x4(%ebx),%esi
 804952f:	85 f6                	test   %esi,%esi
 8049531:	7e c1                	jle    80494f4 <rio_readlineb+0x26>
 8049533:	85 f6                	test   %esi,%esi
 8049535:	0f 95 c0             	setne  %al
 8049538:	0f b6 c0             	movzbl %al,%eax
 804953b:	89 45 cc             	mov    %eax,-0x34(%ebp)
 804953e:	8b 4b 08             	mov    0x8(%ebx),%ecx
 8049541:	c7 44 24 0c 01 00 00 	movl   $0x1,0xc(%esp)
 8049548:	00
 8049549:	89 44 24 08          	mov    %eax,0x8(%esp)
 804954d:	89 4d c8             	mov    %ecx,-0x38(%ebp)
 8049550:	89 4c 24 04          	mov    %ecx,0x4(%esp)
 8049554:	8d 55 e7             	lea    -0x19(%ebp),%edx
 8049557:	89 14 24             	mov    %edx,(%esp)
 804955a:	e8 81 f3 ff ff       	call   80488e0 <__memcpy_chk@plt>
 804955f:	8b 4d c8             	mov    -0x38(%ebp),%ecx
 8049562:	8b 55 cc             	mov    -0x34(%ebp),%edx
 8049565:	01 d1                	add    %edx,%ecx
 8049567:	89 4b 08             	mov    %ecx,0x8(%ebx)
 804956a:	29 d6                	sub    %edx,%esi
 804956c:	89 73 04             	mov    %esi,0x4(%ebx)
 804956f:	83 fa 01             	cmp    $0x1,%edx
 8049572:	75 14                	jne    8049588 <rio_readlineb+0xba>
 8049574:	83 45 d0 01          	addl   $0x1,-0x30(%ebp)
 8049578:	0f b6 45 e7          	movzbl -0x19(%ebp),%eax
 804957c:	8b 55 d0             	mov    -0x30(%ebp),%edx
 804957f:	88 42 ff             	mov    %al,-0x1(%edx)
 8049582:	3c 0a                	cmp    $0xa,%al
 8049584:	75 17                	jne    804959d <rio_readlineb+0xcf>
 8049586:	eb 2a                	jmp    80495b2 <rio_readlineb+0xe4>
 8049588:	83 7d cc 00          	cmpl   $0x0,-0x34(%ebp)
 804958c:	75 36                	jne    80495c4 <rio_readlineb+0xf6>
 804958e:	8b 45 d4             	mov    -0x2c(%ebp),%eax
 8049591:	eb 03                	jmp    8049596 <rio_readlineb+0xc8>
 8049593:	8b 45 d4             	mov    -0x2c(%ebp),%eax
 8049596:	83 f8 01             	cmp    $0x1,%eax
 8049599:	75 17                	jne    80495b2 <rio_readlineb+0xe4>
 804959b:	eb 2e                	jmp    80495cb <rio_readlineb+0xfd>
 804959d:	83 45 d4 01          	addl   $0x1,-0x2c(%ebp)
 80495a1:	8b 45 c4             	mov    -0x3c(%ebp),%eax
 80495a4:	39 45 d4             	cmp    %eax,-0x2c(%ebp)
 80495a7:	74 09                	je     80495b2 <rio_readlineb+0xe4>
 80495a9:	eb 81                	jmp    804952c <rio_readlineb+0x5e>
 80495ab:	c7 45 d4 01 00 00 00 	movl   $0x1,-0x2c(%ebp)
 80495b2:	8b 45 d0             	mov    -0x30(%ebp),%eax
 80495b5:	c6 00 00             	movb   $0x0,(%eax)
 80495b8:	8b 45 d4             	mov    -0x2c(%ebp),%eax
 80495bb:	eb 13                	jmp    80495d0 <rio_readlineb+0x102>
 80495bd:	b8 ff ff ff ff       	mov    $0xffffffff,%eax
 80495c2:	eb 0c                	jmp    80495d0 <rio_readlineb+0x102>
 80495c4:	b8 ff ff ff ff       	mov    $0xffffffff,%eax
 80495c9:	eb 05                	jmp    80495d0 <rio_readlineb+0x102>
 80495cb:	b8 00 00 00 00       	mov    $0x0,%eax
 80495d0:	83 c4 4c             	add    $0x4c,%esp
 80495d3:	5b                   	pop    %ebx
 80495d4:	5e                   	pop    %esi
 80495d5:	5f                   	pop    %edi
 80495d6:	5d                   	pop    %ebp
 80495d7:	c3                   	ret

080495d8 <submitr>:
 80495d8:	55                   	push   %ebp
 80495d9:	89 e5                	mov    %esp,%ebp
 80495db:	57                   	push   %edi
 80495dc:	56                   	push   %esi
 80495dd:	53                   	push   %ebx
 80495de:	81 ec 7c a0 00 00    	sub    $0xa07c,%esp
 80495e4:	8b 7d 08             	mov    0x8(%ebp),%edi
 80495e7:	8b 45 10             	mov    0x10(%ebp),%eax
 80495ea:	89 85 b0 5f ff ff    	mov    %eax,-0xa050(%ebp)
 80495f0:	8b 45 14             	mov    0x14(%ebp),%eax
 80495f3:	89 85 ac 5f ff ff    	mov    %eax,-0xa054(%ebp)
 80495f9:	8b 45 18             	mov    0x18(%ebp),%eax
 80495fc:	89 85 a8 5f ff ff    	mov    %eax,-0xa058(%ebp)
 8049602:	8b 5d 1c             	mov    0x1c(%ebp),%ebx
 8049605:	8b 45 20             	mov    0x20(%ebp),%eax
 8049608:	89 85 a4 5f ff ff    	mov    %eax,-0xa05c(%ebp)
 804960e:	65 a1 14 00 00 00    	mov    %gs:0x14,%eax
 8049614:	89 45 e4             	mov    %eax,-0x1c(%ebp)
 8049617:	31 c0                	xor    %eax,%eax
 8049619:	c7 85 c4 5f ff ff 00 	movl   $0x0,-0xa03c(%ebp)
 8049620:	00 00 00
 8049623:	c7 44 24 08 00 00 00 	movl   $0x0,0x8(%esp)
 804962a:	00
 804962b:	c7 44 24 04 01 00 00 	movl   $0x1,0x4(%esp)
 8049632:	00
 8049633:	c7 04 24 02 00 00 00 	movl   $0x2,(%esp)
 804963a:	e8 a1 f3 ff ff       	call   80489e0 <socket@plt>
 804963f:	89 85 b4 5f ff ff    	mov    %eax,-0xa04c(%ebp)
 8049645:	85 c0                	test   %eax,%eax
 8049647:	79 54                	jns    804969d <submitr+0xc5>
 8049649:	8b 85 a4 5f ff ff    	mov    -0xa05c(%ebp),%eax
 804964f:	c7 00 45 72 72 6f    	movl   $0x6f727245,(%eax)
 8049655:	c7 40 04 72 3a 20 43 	movl   $0x43203a72,0x4(%eax)
 804965c:	c7 40 08 6c 69 65 6e 	movl   $0x6e65696c,0x8(%eax)
 8049663:	c7 40 0c 74 20 75 6e 	movl   $0x6e752074,0xc(%eax)
 804966a:	c7 40 10 61 62 6c 65 	movl   $0x656c6261,0x10(%eax)
 8049671:	c7 40 14 20 74 6f 20 	movl   $0x206f7420,0x14(%eax)
 8049678:	c7 40 18 63 72 65 61 	movl   $0x61657263,0x18(%eax)
 804967f:	c7 40 1c 74 65 20 73 	movl   $0x73206574,0x1c(%eax)
 8049686:	c7 40 20 6f 63 6b 65 	movl   $0x656b636f,0x20(%eax)
 804968d:	66 c7 40 24 74 00    	movw   $0x74,0x24(%eax)
 8049693:	b8 ff ff ff ff       	mov    $0xffffffff,%eax
 8049698:	e9 5c 06 00 00       	jmp    8049cf9 <submitr+0x721>
 804969d:	89 3c 24             	mov    %edi,(%esp)
 80496a0:	e8 5b f3 ff ff       	call   8048a00 <gethostbyname@plt>
 80496a5:	85 c0                	test   %eax,%eax
 80496a7:	75 42                	jne    80496eb <submitr+0x113>
 80496a9:	89 7c 24 10          	mov    %edi,0x10(%esp)
 80496ad:	c7 44 24 0c 5c a7 04 	movl   $0x804a75c,0xc(%esp)
 80496b4:	08
 80496b5:	c7 44 24 08 ff ff ff 	movl   $0xffffffff,0x8(%esp)
 80496bc:	ff
 80496bd:	c7 44 24 04 01 00 00 	movl   $0x1,0x4(%esp)
 80496c4:	00
 80496c5:	8b 85 a4 5f ff ff    	mov    -0xa05c(%ebp),%eax
 80496cb:	89 04 24             	mov    %eax,(%esp)
 80496ce:	e8 6d f3 ff ff       	call   8048a40 <__sprintf_chk@plt>
 80496d3:	8b 85 b4 5f ff ff    	mov    -0xa04c(%ebp),%eax
 80496d9:	89 04 24             	mov    %eax,(%esp)
 80496dc:	e8 3f f3 ff ff       	call   8048a20 <close@plt>
 80496e1:	b8 ff ff ff ff       	mov    $0xffffffff,%eax
 80496e6:	e9 0e 06 00 00       	jmp    8049cf9 <submitr+0x721>
 80496eb:	8d b5 c8 5f ff ff    	lea    -0xa038(%ebp),%esi
 80496f1:	c7 85 c8 5f ff ff 00 	movl   $0x0,-0xa038(%ebp)
 80496f8:	00 00 00
 80496fb:	c7 85 cc 5f ff ff 00 	movl   $0x0,-0xa034(%ebp)
 8049702:	00 00 00
 8049705:	c7 85 d0 5f ff ff 00 	movl   $0x0,-0xa030(%ebp)
 804970c:	00 00 00
 804970f:	c7 85 d4 5f ff ff 00 	movl   $0x0,-0xa02c(%ebp)
 8049716:	00 00 00
 8049719:	66 c7 85 c8 5f ff ff 	movw   $0x2,-0xa038(%ebp)
 8049720:	02 00
 8049722:	c7 44 24 0c 0c 00 00 	movl   $0xc,0xc(%esp)
 8049729:	00
 804972a:	8b 50 0c             	mov    0xc(%eax),%edx
 804972d:	89 54 24 08          	mov    %edx,0x8(%esp)
 8049731:	8b 40 10             	mov    0x10(%eax),%eax
 8049734:	8b 00                	mov    (%eax),%eax
 8049736:	89 44 24 04          	mov    %eax,0x4(%esp)
 804973a:	8d 85 cc 5f ff ff    	lea    -0xa034(%ebp),%eax
 8049740:	89 04 24             	mov    %eax,(%esp)
 8049743:	e8 88 f1 ff ff       	call   80488d0 <__memmove_chk@plt>
 8049748:	0f b7 45 0c          	movzwl 0xc(%ebp),%eax
 804974c:	66 c1 c8 08          	ror    $0x8,%ax
 8049750:	66 89 85 ca 5f ff ff 	mov    %ax,-0xa036(%ebp)
 8049757:	c7 44 24 08 10 00 00 	movl   $0x10,0x8(%esp)
 804975e:	00
 804975f:	89 74 24 04          	mov    %esi,0x4(%esp)
 8049763:	8b 85 b4 5f ff ff    	mov    -0xa04c(%ebp),%eax
 8049769:	89 04 24             	mov    %eax,(%esp)
 804976c:	e8 9f f2 ff ff       	call   8048a10 <connect@plt>
 8049771:	85 c0                	test   %eax,%eax
 8049773:	79 42                	jns    80497b7 <submitr+0x1df>
 8049775:	89 7c 24 10          	mov    %edi,0x10(%esp)
 8049779:	c7 44 24 0c 88 a7 04 	movl   $0x804a788,0xc(%esp)
 8049780:	08
 8049781:	c7 44 24 08 ff ff ff 	movl   $0xffffffff,0x8(%esp)
 8049788:	ff
 8049789:	c7 44 24 04 01 00 00 	movl   $0x1,0x4(%esp)
 8049790:	00
 8049791:	8b 85 a4 5f ff ff    	mov    -0xa05c(%ebp),%eax
 8049797:	89 04 24             	mov    %eax,(%esp)
 804979a:	e8 a1 f2 ff ff       	call   8048a40 <__sprintf_chk@plt>
 804979f:	8b 85 b4 5f ff ff    	mov    -0xa04c(%ebp),%eax
 80497a5:	89 04 24             	mov    %eax,(%esp)
 80497a8:	e8 73 f2 ff ff       	call   8048a20 <close@plt>
 80497ad:	b8 ff ff ff ff       	mov    $0xffffffff,%eax
 80497b2:	e9 42 05 00 00       	jmp    8049cf9 <submitr+0x721>
 80497b7:	ba ff ff ff ff       	mov    $0xffffffff,%edx
 80497bc:	89 df                	mov    %ebx,%edi
 80497be:	b8 00 00 00 00       	mov    $0x0,%eax
 80497c3:	89 d1                	mov    %edx,%ecx
 80497c5:	f2 ae                	repnz scas %es:(%edi),%al
 80497c7:	f7 d1                	not    %ecx
 80497c9:	89 8d a0 5f ff ff    	mov    %ecx,-0xa060(%ebp)
 80497cf:	8b bd b0 5f ff ff    	mov    -0xa050(%ebp),%edi
 80497d5:	89 d1                	mov    %edx,%ecx
 80497d7:	f2 ae                	repnz scas %es:(%edi),%al
 80497d9:	89 8d 9c 5f ff ff    	mov    %ecx,-0xa064(%ebp)
 80497df:	8b bd ac 5f ff ff    	mov    -0xa054(%ebp),%edi
 80497e5:	89 d1                	mov    %edx,%ecx
 80497e7:	f2 ae                	repnz scas %es:(%edi),%al
 80497e9:	89 ce                	mov    %ecx,%esi
 80497eb:	f7 d6                	not    %esi
 80497ed:	8b bd a8 5f ff ff    	mov    -0xa058(%ebp),%edi
 80497f3:	89 d1                	mov    %edx,%ecx
 80497f5:	f2 ae                	repnz scas %es:(%edi),%al
 80497f7:	2b b5 9c 5f ff ff    	sub    -0xa064(%ebp),%esi
 80497fd:	29 ce                	sub    %ecx,%esi
 80497ff:	8b 8d a0 5f ff ff    	mov    -0xa060(%ebp),%ecx
 8049805:	8d 44 49 fd          	lea    -0x3(%ecx,%ecx,2),%eax
 8049809:	8d 44 06 7b          	lea    0x7b(%esi,%eax,1),%eax
 804980d:	3d 00 20 00 00       	cmp    $0x2000,%eax
 8049812:	76 7f                	jbe    8049893 <submitr+0x2bb>
 8049814:	8b 85 a4 5f ff ff    	mov    -0xa05c(%ebp),%eax
 804981a:	c7 00 45 72 72 6f    	movl   $0x6f727245,(%eax)
 8049820:	c7 40 04 72 3a 20 52 	movl   $0x52203a72,0x4(%eax)
 8049827:	c7 40 08 65 73 75 6c 	movl   $0x6c757365,0x8(%eax)
 804982e:	c7 40 0c 74 20 73 74 	movl   $0x74732074,0xc(%eax)
 8049835:	c7 40 10 72 69 6e 67 	movl   $0x676e6972,0x10(%eax)
 804983c:	c7 40 14 20 74 6f 6f 	movl   $0x6f6f7420,0x14(%eax)
 8049843:	c7 40 18 20 6c 61 72 	movl   $0x72616c20,0x18(%eax)
 804984a:	c7 40 1c 67 65 2e 20 	movl   $0x202e6567,0x1c(%eax)
 8049851:	c7 40 20 49 6e 63 72 	movl   $0x72636e49,0x20(%eax)
 8049858:	c7 40 24 65 61 73 65 	movl   $0x65736165,0x24(%eax)
 804985f:	c7 40 28 20 53 55 42 	movl   $0x42555320,0x28(%eax)
 8049866:	c7 40 2c 4d 49 54 52 	movl   $0x5254494d,0x2c(%eax)
 804986d:	c7 40 30 5f 4d 41 58 	movl   $0x58414d5f,0x30(%eax)
 8049874:	c7 40 34 42 55 46 00 	movl   $0x465542,0x34(%eax)
 804987b:	8b 85 b4 5f ff ff    	mov    -0xa04c(%ebp),%eax
 8049881:	89 04 24             	mov    %eax,(%esp)
 8049884:	e8 97 f1 ff ff       	call   8048a20 <close@plt>
 8049889:	b8 ff ff ff ff       	mov    $0xffffffff,%eax
 804988e:	e9 66 04 00 00       	jmp    8049cf9 <submitr+0x721>
 8049893:	8d 95 d8 7f ff ff    	lea    -0x8028(%ebp),%edx
 8049899:	b9 00 08 00 00       	mov    $0x800,%ecx
 804989e:	b8 00 00 00 00       	mov    $0x0,%eax
 80498a3:	89 d7                	mov    %edx,%edi
 80498a5:	f3 ab                	rep stos %eax,%es:(%edi)
 80498a7:	89 df                	mov    %ebx,%edi
 80498a9:	b9 ff ff ff ff       	mov    $0xffffffff,%ecx
 80498ae:	f2 ae                	repnz scas %es:(%edi),%al
 80498b0:	f7 d1                	not    %ecx
 80498b2:	83 e9 01             	sub    $0x1,%ecx
 80498b5:	89 ce                	mov    %ecx,%esi
 80498b7:	0f 84 51 04 00 00    	je     8049d0e <submitr+0x736>
 80498bd:	89 d7                	mov    %edx,%edi
 80498bf:	0f b6 03             	movzbl (%ebx),%eax
 80498c2:	3c 2a                	cmp    $0x2a,%al
 80498c4:	74 21                	je     80498e7 <submitr+0x30f>
 80498c6:	8d 50 d3             	lea    -0x2d(%eax),%edx
 80498c9:	80 fa 01             	cmp    $0x1,%dl
 80498cc:	76 19                	jbe    80498e7 <submitr+0x30f>
 80498ce:	3c 5f                	cmp    $0x5f,%al
 80498d0:	74 15                	je     80498e7 <submitr+0x30f>
 80498d2:	8d 50 d0             	lea    -0x30(%eax),%edx
 80498d5:	80 fa 09             	cmp    $0x9,%dl
 80498d8:	76 0d                	jbe    80498e7 <submitr+0x30f>
 80498da:	89 c2                	mov    %eax,%edx
 80498dc:	83 e2 df             	and    $0xffffffdf,%edx
 80498df:	83 ea 41             	sub    $0x41,%edx
 80498e2:	80 fa 19             	cmp    $0x19,%dl
 80498e5:	77 07                	ja     80498ee <submitr+0x316>
 80498e7:	8d 57 01             	lea    0x1(%edi),%edx
 80498ea:	88 07                	mov    %al,(%edi)
 80498ec:	eb 69                	jmp    8049957 <submitr+0x37f>
 80498ee:	3c 20                	cmp    $0x20,%al
 80498f0:	75 08                	jne    80498fa <submitr+0x322>
 80498f2:	8d 57 01             	lea    0x1(%edi),%edx
 80498f5:	c6 07 2b             	movb   $0x2b,(%edi)
 80498f8:	eb 5d                	jmp    8049957 <submitr+0x37f>
 80498fa:	8d 50 e0             	lea    -0x20(%eax),%edx
 80498fd:	80 fa 5f             	cmp    $0x5f,%dl
 8049900:	76 08                	jbe    804990a <submitr+0x332>
 8049902:	3c 09                	cmp    $0x9,%al
 8049904:	0f 85 82 04 00 00    	jne    8049d8c <submitr+0x7b4>
 804990a:	0f b6 c0             	movzbl %al,%eax
 804990d:	89 44 24 10          	mov    %eax,0x10(%esp)
 8049911:	c7 44 24 0c 9c a8 04 	movl   $0x804a89c,0xc(%esp)
 8049918:	08
 8049919:	c7 44 24 08 08 00 00 	movl   $0x8,0x8(%esp)
 8049920:	00
 8049921:	c7 44 24 04 01 00 00 	movl   $0x1,0x4(%esp)
 8049928:	00
 8049929:	8d 85 d8 df ff ff    	lea    -0x2028(%ebp),%eax
 804992f:	89 04 24             	mov    %eax,(%esp)
 8049932:	e8 09 f1 ff ff       	call   8048a40 <__sprintf_chk@plt>
 8049937:	0f b6 85 d8 df ff ff 	movzbl -0x2028(%ebp),%eax
 804993e:	88 07                	mov    %al,(%edi)
 8049940:	0f b6 85 d9 df ff ff 	movzbl -0x2027(%ebp),%eax
 8049947:	88 47 01             	mov    %al,0x1(%edi)
 804994a:	8d 57 03             	lea    0x3(%edi),%edx
 804994d:	0f b6 85 da df ff ff 	movzbl -0x2026(%ebp),%eax
 8049954:	88 47 02             	mov    %al,0x2(%edi)
 8049957:	83 c3 01             	add    $0x1,%ebx
 804995a:	83 ee 01             	sub    $0x1,%esi
 804995d:	0f 84 ab 03 00 00    	je     8049d0e <submitr+0x736>
 8049963:	89 d7                	mov    %edx,%edi
 8049965:	e9 55 ff ff ff       	jmp    80498bf <submitr+0x2e7>
 804996a:	89 5c 24 08          	mov    %ebx,0x8(%esp)
 804996e:	89 74 24 04          	mov    %esi,0x4(%esp)
 8049972:	89 3c 24             	mov    %edi,(%esp)
 8049975:	e8 c6 ef ff ff       	call   8048940 <write@plt>
 804997a:	85 c0                	test   %eax,%eax
 804997c:	7f 0f                	jg     804998d <submitr+0x3b5>
 804997e:	e8 1d f0 ff ff       	call   80489a0 <__errno_location@plt>
 8049983:	83 38 04             	cmpl   $0x4,(%eax)
 8049986:	75 15                	jne    804999d <submitr+0x3c5>
 8049988:	b8 00 00 00 00       	mov    $0x0,%eax
 804998d:	01 c6                	add    %eax,%esi
 804998f:	29 c3                	sub    %eax,%ebx
 8049991:	75 d7                	jne    804996a <submitr+0x392>
 8049993:	8b bd b0 5f ff ff    	mov    -0xa050(%ebp),%edi
 8049999:	85 ff                	test   %edi,%edi
 804999b:	79 6a                	jns    8049a07 <submitr+0x42f>
 804999d:	8b 85 a4 5f ff ff    	mov    -0xa05c(%ebp),%eax
 80499a3:	c7 00 45 72 72 6f    	movl   $0x6f727245,(%eax)
 80499a9:	c7 40 04 72 3a 20 43 	movl   $0x43203a72,0x4(%eax)
 80499b0:	c7 40 08 6c 69 65 6e 	movl   $0x6e65696c,0x8(%eax)
 80499b7:	c7 40 0c 74 20 75 6e 	movl   $0x6e752074,0xc(%eax)
 80499be:	c7 40 10 61 62 6c 65 	movl   $0x656c6261,0x10(%eax)
 80499c5:	c7 40 14 20 74 6f 20 	movl   $0x206f7420,0x14(%eax)
 80499cc:	c7 40 18 77 72 69 74 	movl   $0x74697277,0x18(%eax)
 80499d3:	c7 40 1c 65 20 74 6f 	movl   $0x6f742065,0x1c(%eax)
 80499da:	c7 40 20 20 74 68 65 	movl   $0x65687420,0x20(%eax)
 80499e1:	c7 40 24 20 73 65 72 	movl   $0x72657320,0x24(%eax)
 80499e8:	c7 40 28 76 65 72 00 	movl   $0x726576,0x28(%eax)
 80499ef:	8b 85 b4 5f ff ff    	mov    -0xa04c(%ebp),%eax
 80499f5:	89 04 24             	mov    %eax,(%esp)
 80499f8:	e8 23 f0 ff ff       	call   8048a20 <close@plt>
 80499fd:	b8 ff ff ff ff       	mov    $0xffffffff,%eax
 8049a02:	e9 f2 02 00 00       	jmp    8049cf9 <submitr+0x721>
 8049a07:	8b 85 b4 5f ff ff    	mov    -0xa04c(%ebp),%eax
 8049a0d:	89 85 d8 df ff ff    	mov    %eax,-0x2028(%ebp)
 8049a13:	c7 85 dc df ff ff 00 	movl   $0x0,-0x2024(%ebp)
 8049a1a:	00 00 00
 8049a1d:	8d 85 e4 df ff ff    	lea    -0x201c(%ebp),%eax
 8049a23:	89 85 e0 df ff ff    	mov    %eax,-0x2020(%ebp)
 8049a29:	b9 00 20 00 00       	mov    $0x2000,%ecx
 8049a2e:	8d 95 d8 5f ff ff    	lea    -0xa028(%ebp),%edx
 8049a34:	8d 85 d8 df ff ff    	lea    -0x2028(%ebp),%eax
 8049a3a:	e8 8f fa ff ff       	call   80494ce <rio_readlineb>
 8049a3f:	85 c0                	test   %eax,%eax
 8049a41:	7f 7e                	jg     8049ac1 <submitr+0x4e9>
 8049a43:	8b 85 a4 5f ff ff    	mov    -0xa05c(%ebp),%eax
 8049a49:	c7 00 45 72 72 6f    	movl   $0x6f727245,(%eax)
 8049a4f:	c7 40 04 72 3a 20 43 	movl   $0x43203a72,0x4(%eax)
 8049a56:	c7 40 08 6c 69 65 6e 	movl   $0x6e65696c,0x8(%eax)
 8049a5d:	c7 40 0c 74 20 75 6e 	movl   $0x6e752074,0xc(%eax)
 8049a64:	c7 40 10 61 62 6c 65 	movl   $0x656c6261,0x10(%eax)
 8049a6b:	c7 40 14 20 74 6f 20 	movl   $0x206f7420,0x14(%eax)
 8049a72:	c7 40 18 72 65 61 64 	movl   $0x64616572,0x18(%eax)
 8049a79:	c7 40 1c 20 66 69 72 	movl   $0x72696620,0x1c(%eax)
 8049a80:	c7 40 20 73 74 20 68 	movl   $0x68207473,0x20(%eax)
 8049a87:	c7 40 24 65 61 64 65 	movl   $0x65646165,0x24(%eax)
 8049a8e:	c7 40 28 72 20 66 72 	movl   $0x72662072,0x28(%eax)
 8049a95:	c7 40 2c 6f 6d 20 73 	movl   $0x73206d6f,0x2c(%eax)
 8049a9c:	c7 40 30 65 72 76 65 	movl   $0x65767265,0x30(%eax)
 8049aa3:	66 c7 40 34 72 00    	movw   $0x72,0x34(%eax)
 8049aa9:	8b 85 b4 5f ff ff    	mov    -0xa04c(%ebp),%eax
 8049aaf:	89 04 24             	mov    %eax,(%esp)
 8049ab2:	e8 69 ef ff ff       	call   8048a20 <close@plt>
 8049ab7:	b8 ff ff ff ff       	mov    $0xffffffff,%eax
 8049abc:	e9 38 02 00 00       	jmp    8049cf9 <submitr+0x721>
 8049ac1:	8d 85 d8 bf ff ff    	lea    -0x4028(%ebp),%eax
 8049ac7:	89 44 24 10          	mov    %eax,0x10(%esp)
 8049acb:	8d 85 c4 5f ff ff    	lea    -0xa03c(%ebp),%eax
 8049ad1:	89 44 24 0c          	mov    %eax,0xc(%esp)
 8049ad5:	8d 85 d8 9f ff ff    	lea    -0x6028(%ebp),%eax
 8049adb:	89 44 24 08          	mov    %eax,0x8(%esp)
 8049adf:	c7 44 24 04 a3 a8 04 	movl   $0x804a8a3,0x4(%esp)
 8049ae6:	08
 8049ae7:	8d 85 d8 5f ff ff    	lea    -0xa028(%ebp),%eax
 8049aed:	89 04 24             	mov    %eax,(%esp)
 8049af0:	e8 7b ee ff ff       	call   8048970 <__isoc99_sscanf@plt>
 8049af5:	8b 85 c4 5f ff ff    	mov    -0xa03c(%ebp),%eax
 8049afb:	3d c8 00 00 00       	cmp    $0xc8,%eax
 8049b00:	0f 84 db 00 00 00    	je     8049be1 <submitr+0x609>
 8049b06:	8d 95 d8 bf ff ff    	lea    -0x4028(%ebp),%edx
 8049b0c:	89 54 24 14          	mov    %edx,0x14(%esp)
 8049b10:	89 44 24 10          	mov    %eax,0x10(%esp)
 8049b14:	c7 44 24 0c b0 a7 04 	movl   $0x804a7b0,0xc(%esp)
 8049b1b:	08
 8049b1c:	c7 44 24 08 ff ff ff 	movl   $0xffffffff,0x8(%esp)
 8049b23:	ff
 8049b24:	c7 44 24 04 01 00 00 	movl   $0x1,0x4(%esp)
 8049b2b:	00
 8049b2c:	8b 85 a4 5f ff ff    	mov    -0xa05c(%ebp),%eax
 8049b32:	89 04 24             	mov    %eax,(%esp)
 8049b35:	e8 06 ef ff ff       	call   8048a40 <__sprintf_chk@plt>
 8049b3a:	8b 85 b4 5f ff ff    	mov    -0xa04c(%ebp),%eax
 8049b40:	89 04 24             	mov    %eax,(%esp)
 8049b43:	e8 d8 ee ff ff       	call   8048a20 <close@plt>
 8049b48:	b8 ff ff ff ff       	mov    $0xffffffff,%eax
 8049b4d:	e9 a7 01 00 00       	jmp    8049cf9 <submitr+0x721>
 8049b52:	b9 00 20 00 00       	mov    $0x2000,%ecx
 8049b57:	8d 95 d8 5f ff ff    	lea    -0xa028(%ebp),%edx
 8049b5d:	8d 85 d8 df ff ff    	lea    -0x2028(%ebp),%eax
 8049b63:	e8 66 f9 ff ff       	call   80494ce <rio_readlineb>
 8049b68:	85 c0                	test   %eax,%eax
 8049b6a:	7f 75                	jg     8049be1 <submitr+0x609>
 8049b6c:	8b 85 a4 5f ff ff    	mov    -0xa05c(%ebp),%eax
 8049b72:	c7 00 45 72 72 6f    	movl   $0x6f727245,(%eax)
 8049b78:	c7 40 04 72 3a 20 43 	movl   $0x43203a72,0x4(%eax)
 8049b7f:	c7 40 08 6c 69 65 6e 	movl   $0x6e65696c,0x8(%eax)
 8049b86:	c7 40 0c 74 20 75 6e 	movl   $0x6e752074,0xc(%eax)
 8049b8d:	c7 40 10 61 62 6c 65 	movl   $0x656c6261,0x10(%eax)
 8049b94:	c7 40 14 20 74 6f 20 	movl   $0x206f7420,0x14(%eax)
 8049b9b:	c7 40 18 72 65 61 64 	movl   $0x64616572,0x18(%eax)
 8049ba2:	c7 40 1c 20 68 65 61 	movl   $0x61656820,0x1c(%eax)
 8049ba9:	c7 40 20 64 65 72 73 	movl   $0x73726564,0x20(%eax)
 8049bb0:	c7 40 24 20 66 72 6f 	movl   $0x6f726620,0x24(%eax)
 8049bb7:	c7 40 28 6d 20 73 65 	movl   $0x6573206d,0x28(%eax)
 8049bbe:	c7 40 2c 72 76 65 72 	movl   $0x72657672,0x2c(%eax)
 8049bc5:	c6 40 30 00          	movb   $0x0,0x30(%eax)
 8049bc9:	8b 85 b4 5f ff ff    	mov    -0xa04c(%ebp),%eax
 8049bcf:	89 04 24             	mov    %eax,(%esp)
 8049bd2:	e8 49 ee ff ff       	call   8048a20 <close@plt>
 8049bd7:	b8 ff ff ff ff       	mov    $0xffffffff,%eax
 8049bdc:	e9 18 01 00 00       	jmp    8049cf9 <submitr+0x721>
 8049be1:	80 bd d8 5f ff ff 0d 	cmpb   $0xd,-0xa028(%ebp)
 8049be8:	0f 85 64 ff ff ff    	jne    8049b52 <submitr+0x57a>
 8049bee:	80 bd d9 5f ff ff 0a 	cmpb   $0xa,-0xa027(%ebp)
 8049bf5:	0f 85 57 ff ff ff    	jne    8049b52 <submitr+0x57a>
 8049bfb:	80 bd da 5f ff ff 00 	cmpb   $0x0,-0xa026(%ebp)
 8049c02:	0f 85 4a ff ff ff    	jne    8049b52 <submitr+0x57a>
 8049c08:	b9 00 20 00 00       	mov    $0x2000,%ecx
 8049c0d:	8d 95 d8 5f ff ff    	lea    -0xa028(%ebp),%edx
 8049c13:	8d 85 d8 df ff ff    	lea    -0x2028(%ebp),%eax
 8049c19:	e8 b0 f8 ff ff       	call   80494ce <rio_readlineb>
 8049c1e:	85 c0                	test   %eax,%eax
 8049c20:	7f 7c                	jg     8049c9e <submitr+0x6c6>
 8049c22:	8b 85 a4 5f ff ff    	mov    -0xa05c(%ebp),%eax
 8049c28:	c7 00 45 72 72 6f    	movl   $0x6f727245,(%eax)
 8049c2e:	c7 40 04 72 3a 20 43 	movl   $0x43203a72,0x4(%eax)
 8049c35:	c7 40 08 6c 69 65 6e 	movl   $0x6e65696c,0x8(%eax)
 8049c3c:	c7 40 0c 74 20 75 6e 	movl   $0x6e752074,0xc(%eax)
 8049c43:	c7 40 10 61 62 6c 65 	movl   $0x656c6261,0x10(%eax)
 8049c4a:	c7 40 14 20 74 6f 20 	movl   $0x206f7420,0x14(%eax)
 8049c51:	c7 40 18 72 65 61 64 	movl   $0x64616572,0x18(%eax)
 8049c58:	c7 40 1c 20 73 74 61 	movl   $0x61747320,0x1c(%eax)
 8049c5f:	c7 40 20 74 75 73 20 	movl   $0x20737574,0x20(%eax)
 8049c66:	c7 40 24 6d 65 73 73 	movl   $0x7373656d,0x24(%eax)
 8049c6d:	c7 40 28 61 67 65 20 	movl   $0x20656761,0x28(%eax)
 8049c74:	c7 40 2c 66 72 6f 6d 	movl   $0x6d6f7266,0x2c(%eax)
 8049c7b:	c7 40 30 20 73 65 72 	movl   $0x72657320,0x30(%eax)
 8049c82:	c7 40 34 76 65 72 00 	movl   $0x726576,0x34(%eax)
 8049c89:	8b 85 b4 5f ff ff    	mov    -0xa04c(%ebp),%eax
 8049c8f:	89 04 24             	mov    %eax,(%esp)
 8049c92:	e8 89 ed ff ff       	call   8048a20 <close@plt>
 8049c97:	b8 ff ff ff ff       	mov    $0xffffffff,%eax
 8049c9c:	eb 5b                	jmp    8049cf9 <submitr+0x721>
 8049c9e:	8d 85 d8 5f ff ff    	lea    -0xa028(%ebp),%eax
 8049ca4:	89 44 24 04          	mov    %eax,0x4(%esp)
 8049ca8:	8b b5 a4 5f ff ff    	mov    -0xa05c(%ebp),%esi
 8049cae:	89 34 24             	mov    %esi,(%esp)
 8049cb1:	e8 da eb ff ff       	call   8048890 <strcpy@plt>
 8049cb6:	8b 85 b4 5f ff ff    	mov    -0xa04c(%ebp),%eax
 8049cbc:	89 04 24             	mov    %eax,(%esp)
 8049cbf:	e8 5c ed ff ff       	call   8048a20 <close@plt>
 8049cc4:	0f b6 06             	movzbl (%esi),%eax
 8049cc7:	ba 4f 00 00 00       	mov    $0x4f,%edx
 8049ccc:	29 c2                	sub    %eax,%edx
 8049cce:	75 1f                	jne    8049cef <submitr+0x717>
 8049cd0:	8b 85 a4 5f ff ff    	mov    -0xa05c(%ebp),%eax
 8049cd6:	0f b6 40 01          	movzbl 0x1(%eax),%eax
 8049cda:	ba 4b 00 00 00       	mov    $0x4b,%edx
 8049cdf:	29 c2                	sub    %eax,%edx
 8049ce1:	75 0c                	jne    8049cef <submitr+0x717>
 8049ce3:	8b 85 a4 5f ff ff    	mov    -0xa05c(%ebp),%eax
 8049ce9:	0f b6 50 02          	movzbl 0x2(%eax),%edx
 8049ced:	f7 da                	neg    %edx
 8049cef:	85 d2                	test   %edx,%edx
 8049cf1:	0f 95 c0             	setne  %al
 8049cf4:	0f b6 c0             	movzbl %al,%eax
 8049cf7:	f7 d8                	neg    %eax
 8049cf9:	8b 4d e4             	mov    -0x1c(%ebp),%ecx
 8049cfc:	65 33 0d 14 00 00 00 	xor    %gs:0x14,%ecx
 8049d03:	0f 84 0a 01 00 00    	je     8049e13 <submitr+0x83b>
 8049d09:	e9 00 01 00 00       	jmp    8049e0e <submitr+0x836>
 8049d0e:	8d 85 d8 7f ff ff    	lea    -0x8028(%ebp),%eax
 8049d14:	89 44 24 1c          	mov    %eax,0x1c(%esp)
 8049d18:	8b 85 a8 5f ff ff    	mov    -0xa058(%ebp),%eax
 8049d1e:	89 44 24 18          	mov    %eax,0x18(%esp)
 8049d22:	8b 85 ac 5f ff ff    	mov    -0xa054(%ebp),%eax
 8049d28:	89 44 24 14          	mov    %eax,0x14(%esp)
 8049d2c:	8b 85 b0 5f ff ff    	mov    -0xa050(%ebp),%eax
 8049d32:	89 44 24 10          	mov    %eax,0x10(%esp)
 8049d36:	c7 44 24 0c e0 a7 04 	movl   $0x804a7e0,0xc(%esp)
 8049d3d:	08
 8049d3e:	c7 44 24 08 00 20 00 	movl   $0x2000,0x8(%esp)
 8049d45:	00
 8049d46:	c7 44 24 04 01 00 00 	movl   $0x1,0x4(%esp)
 8049d4d:	00
 8049d4e:	8d bd d8 5f ff ff    	lea    -0xa028(%ebp),%edi
 8049d54:	89 3c 24             	mov    %edi,(%esp)
 8049d57:	e8 e4 ec ff ff       	call   8048a40 <__sprintf_chk@plt>
 8049d5c:	b8 00 00 00 00       	mov    $0x0,%eax
 8049d61:	b9 ff ff ff ff       	mov    $0xffffffff,%ecx
 8049d66:	f2 ae                	repnz scas %es:(%edi),%al
 8049d68:	f7 d1                	not    %ecx
 8049d6a:	83 e9 01             	sub    $0x1,%ecx
 8049d6d:	0f 84 94 fc ff ff    	je     8049a07 <submitr+0x42f>
 8049d73:	89 cb                	mov    %ecx,%ebx
 8049d75:	8d b5 d8 5f ff ff    	lea    -0xa028(%ebp),%esi
 8049d7b:	89 8d b0 5f ff ff    	mov    %ecx,-0xa050(%ebp)
 8049d81:	8b bd b4 5f ff ff    	mov    -0xa04c(%ebp),%edi
 8049d87:	e9 de fb ff ff       	jmp    804996a <submitr+0x392>
 8049d8c:	8b 8d a4 5f ff ff    	mov    -0xa05c(%ebp),%ecx
 8049d92:	89 cf                	mov    %ecx,%edi
 8049d94:	be 2c a8 04 08       	mov    $0x804a82c,%esi
 8049d99:	b8 43 00 00 00       	mov    $0x43,%eax
 8049d9e:	f6 c1 01             	test   $0x1,%cl
 8049da1:	74 16                	je     8049db9 <submitr+0x7e1>
 8049da3:	0f b6 05 2c a8 04 08 	movzbl 0x804a82c,%eax
 8049daa:	88 01                	mov    %al,(%ecx)
 8049dac:	8d 79 01             	lea    0x1(%ecx),%edi
 8049daf:	be 2d a8 04 08       	mov    $0x804a82d,%esi
 8049db4:	b8 42 00 00 00       	mov    $0x42,%eax
 8049db9:	f7 c7 02 00 00 00    	test   $0x2,%edi
 8049dbf:	74 0f                	je     8049dd0 <submitr+0x7f8>
 8049dc1:	0f b7 16             	movzwl (%esi),%edx
 8049dc4:	66 89 17             	mov    %dx,(%edi)
 8049dc7:	83 c7 02             	add    $0x2,%edi
 8049dca:	83 c6 02             	add    $0x2,%esi
 8049dcd:	83 e8 02             	sub    $0x2,%eax
 8049dd0:	89 c1                	mov    %eax,%ecx
 8049dd2:	c1 e9 02             	shr    $0x2,%ecx
 8049dd5:	f3 a5                	rep movsl %ds:(%esi),%es:(%edi)
 8049dd7:	ba 00 00 00 00       	mov    $0x0,%edx
 8049ddc:	a8 02                	test   $0x2,%al
 8049dde:	74 0b                	je     8049deb <submitr+0x813>
 8049de0:	0f b7 16             	movzwl (%esi),%edx
 8049de3:	66 89 17             	mov    %dx,(%edi)
 8049de6:	ba 02 00 00 00       	mov    $0x2,%edx
 8049deb:	a8 01                	test   $0x1,%al
 8049ded:	74 07                	je     8049df6 <submitr+0x81e>
 8049def:	0f b6 04 16          	movzbl (%esi,%edx,1),%eax
 8049df3:	88 04 17             	mov    %al,(%edi,%edx,1)
 8049df6:	8b 85 b4 5f ff ff    	mov    -0xa04c(%ebp),%eax
 8049dfc:	89 04 24             	mov    %eax,(%esp)
 8049dff:	e8 1c ec ff ff       	call   8048a20 <close@plt>
 8049e04:	b8 ff ff ff ff       	mov    $0xffffffff,%eax
 8049e09:	e9 eb fe ff ff       	jmp    8049cf9 <submitr+0x721>
 8049e0e:	e8 4d ea ff ff       	call   8048860 <__stack_chk_fail@plt>
 8049e13:	81 c4 7c a0 00 00    	add    $0xa07c,%esp
 8049e19:	5b                   	pop    %ebx
 8049e1a:	5e                   	pop    %esi
 8049e1b:	5f                   	pop    %edi
 8049e1c:	5d                   	pop    %ebp
 8049e1d:	c3                   	ret

08049e1e <init_timeout>:
 8049e1e:	55                   	push   %ebp
 8049e1f:	89 e5                	mov    %esp,%ebp
 8049e21:	53                   	push   %ebx
 8049e22:	83 ec 14             	sub    $0x14,%esp
 8049e25:	8b 5d 08             	mov    0x8(%ebp),%ebx
 8049e28:	85 db                	test   %ebx,%ebx
 8049e2a:	74 26                	je     8049e52 <init_timeout+0x34>
 8049e2c:	85 db                	test   %ebx,%ebx
 8049e2e:	b8 02 00 00 00       	mov    $0x2,%eax
 8049e33:	0f 48 d8             	cmovs  %eax,%ebx
 8049e36:	c7 44 24 04 a0 94 04 	movl   $0x80494a0,0x4(%esp)
 8049e3d:	08
 8049e3e:	c7 04 24 0e 00 00 00 	movl   $0xe,(%esp)
 8049e45:	e8 f6 e9 ff ff       	call   8048840 <signal@plt>
 8049e4a:	89 1c 24             	mov    %ebx,(%esp)
 8049e4d:	e8 fe e9 ff ff       	call   8048850 <alarm@plt>
 8049e52:	83 c4 14             	add    $0x14,%esp
 8049e55:	5b                   	pop    %ebx
 8049e56:	5d                   	pop    %ebp
 8049e57:	c3                   	ret

08049e58 <init_driver>:
 8049e58:	55                   	push   %ebp
 8049e59:	89 e5                	mov    %esp,%ebp
 8049e5b:	57                   	push   %edi
 8049e5c:	56                   	push   %esi
 8049e5d:	53                   	push   %ebx
 8049e5e:	83 ec 4c             	sub    $0x4c,%esp
 8049e61:	8b 75 08             	mov    0x8(%ebp),%esi
 8049e64:	65 a1 14 00 00 00    	mov    %gs:0x14,%eax
 8049e6a:	89 45 e4             	mov    %eax,-0x1c(%ebp)
 8049e6d:	31 c0                	xor    %eax,%eax
 8049e6f:	c7 44 24 04 01 00 00 	movl   $0x1,0x4(%esp)
 8049e76:	00
 8049e77:	c7 04 24 0d 00 00 00 	movl   $0xd,(%esp)
 8049e7e:	e8 bd e9 ff ff       	call   8048840 <signal@plt>
 8049e83:	c7 44 24 04 01 00 00 	movl   $0x1,0x4(%esp)
 8049e8a:	00
 8049e8b:	c7 04 24 1d 00 00 00 	movl   $0x1d,(%esp)
 8049e92:	e8 a9 e9 ff ff       	call   8048840 <signal@plt>
 8049e97:	c7 44 24 04 01 00 00 	movl   $0x1,0x4(%esp)
 8049e9e:	00
 8049e9f:	c7 04 24 1d 00 00 00 	movl   $0x1d,(%esp)
 8049ea6:	e8 95 e9 ff ff       	call   8048840 <signal@plt>
 8049eab:	c7 44 24 08 00 00 00 	movl   $0x0,0x8(%esp)
 8049eb2:	00
 8049eb3:	c7 44 24 04 01 00 00 	movl   $0x1,0x4(%esp)
 8049eba:	00
 8049ebb:	c7 04 24 02 00 00 00 	movl   $0x2,(%esp)
 8049ec2:	e8 19 eb ff ff       	call   80489e0 <socket@plt>
 8049ec7:	89 c3                	mov    %eax,%ebx
 8049ec9:	85 c0                	test   %eax,%eax
 8049ecb:	79 4e                	jns    8049f1b <init_driver+0xc3>
 8049ecd:	c7 06 45 72 72 6f    	movl   $0x6f727245,(%esi)
 8049ed3:	c7 46 04 72 3a 20 43 	movl   $0x43203a72,0x4(%esi)
 8049eda:	c7 46 08 6c 69 65 6e 	movl   $0x6e65696c,0x8(%esi)
 8049ee1:	c7 46 0c 74 20 75 6e 	movl   $0x6e752074,0xc(%esi)
 8049ee8:	c7 46 10 61 62 6c 65 	movl   $0x656c6261,0x10(%esi)
 8049eef:	c7 46 14 20 74 6f 20 	movl   $0x206f7420,0x14(%esi)
 8049ef6:	c7 46 18 63 72 65 61 	movl   $0x61657263,0x18(%esi)
 8049efd:	c7 46 1c 74 65 20 73 	movl   $0x73206574,0x1c(%esi)
 8049f04:	c7 46 20 6f 63 6b 65 	movl   $0x656b636f,0x20(%esi)
 8049f0b:	66 c7 46 24 74 00    	movw   $0x74,0x24(%esi)
 8049f11:	b8 ff ff ff ff       	mov    $0xffffffff,%eax
 8049f16:	e9 05 01 00 00       	jmp    804a020 <init_driver+0x1c8>
 8049f1b:	c7 04 24 b4 a8 04 08 	movl   $0x804a8b4,(%esp)
 8049f22:	e8 d9 ea ff ff       	call   8048a00 <gethostbyname@plt>
 8049f27:	85 c0                	test   %eax,%eax
 8049f29:	75 3a                	jne    8049f65 <init_driver+0x10d>
 8049f2b:	c7 44 24 10 b4 a8 04 	movl   $0x804a8b4,0x10(%esp)
 8049f32:	08
 8049f33:	c7 44 24 0c 5c a7 04 	movl   $0x804a75c,0xc(%esp)
 8049f3a:	08
 8049f3b:	c7 44 24 08 ff ff ff 	movl   $0xffffffff,0x8(%esp)
 8049f42:	ff
 8049f43:	c7 44 24 04 01 00 00 	movl   $0x1,0x4(%esp)
 8049f4a:	00
 8049f4b:	89 34 24             	mov    %esi,(%esp)
 8049f4e:	e8 ed ea ff ff       	call   8048a40 <__sprintf_chk@plt>
 8049f53:	89 1c 24             	mov    %ebx,(%esp)
 8049f56:	e8 c5 ea ff ff       	call   8048a20 <close@plt>
 8049f5b:	b8 ff ff ff ff       	mov    $0xffffffff,%eax
 8049f60:	e9 bb 00 00 00       	jmp    804a020 <init_driver+0x1c8>
 8049f65:	8d 7d d4             	lea    -0x2c(%ebp),%edi
 8049f68:	c7 45 d4 00 00 00 00 	movl   $0x0,-0x2c(%ebp)
 8049f6f:	c7 45 d8 00 00 00 00 	movl   $0x0,-0x28(%ebp)
 8049f76:	c7 45 dc 00 00 00 00 	movl   $0x0,-0x24(%ebp)
 8049f7d:	c7 45 e0 00 00 00 00 	movl   $0x0,-0x20(%ebp)
 8049f84:	66 c7 45 d4 02 00    	movw   $0x2,-0x2c(%ebp)
 8049f8a:	c7 44 24 0c 0c 00 00 	movl   $0xc,0xc(%esp)
 8049f91:	00
 8049f92:	8b 50 0c             	mov    0xc(%eax),%edx
 8049f95:	89 54 24 08          	mov    %edx,0x8(%esp)
 8049f99:	8b 40 10             	mov    0x10(%eax),%eax
 8049f9c:	8b 00                	mov    (%eax),%eax
 8049f9e:	89 44 24 04          	mov    %eax,0x4(%esp)
 8049fa2:	8d 45 d8             	lea    -0x28(%ebp),%eax
 8049fa5:	89 04 24             	mov    %eax,(%esp)
 8049fa8:	e8 23 e9 ff ff       	call   80488d0 <__memmove_chk@plt>
 8049fad:	66 c7 45 d6 47 26    	movw   $0x2647,-0x2a(%ebp)
 8049fb3:	c7 44 24 08 10 00 00 	movl   $0x10,0x8(%esp)
 8049fba:	00
 8049fbb:	89 7c 24 04          	mov    %edi,0x4(%esp)
 8049fbf:	89 1c 24             	mov    %ebx,(%esp)
 8049fc2:	e8 49 ea ff ff       	call   8048a10 <connect@plt>
 8049fc7:	85 c0                	test   %eax,%eax
 8049fc9:	79 3f                	jns    804a00a <init_driver+0x1b2>
 8049fcb:	c7 44 24 14 26 47 00 	movl   $0x4726,0x14(%esp)
 8049fd2:	00
 8049fd3:	c7 44 24 10 b4 a8 04 	movl   $0x804a8b4,0x10(%esp)
 8049fda:	08
 8049fdb:	c7 44 24 0c 70 a8 04 	movl   $0x804a870,0xc(%esp)
 8049fe2:	08
 8049fe3:	c7 44 24 08 ff ff ff 	movl   $0xffffffff,0x8(%esp)
 8049fea:	ff
 8049feb:	c7 44 24 04 01 00 00 	movl   $0x1,0x4(%esp)
 8049ff2:	00
 8049ff3:	89 34 24             	mov    %esi,(%esp)
 8049ff6:	e8 45 ea ff ff       	call   8048a40 <__sprintf_chk@plt>
 8049ffb:	89 1c 24             	mov    %ebx,(%esp)
 8049ffe:	e8 1d ea ff ff       	call   8048a20 <close@plt>
 804a003:	b8 ff ff ff ff       	mov    $0xffffffff,%eax
 804a008:	eb 16                	jmp    804a020 <init_driver+0x1c8>
 804a00a:	89 1c 24             	mov    %ebx,(%esp)
 804a00d:	e8 0e ea ff ff       	call   8048a20 <close@plt>
 804a012:	66 c7 06 4f 4b       	movw   $0x4b4f,(%esi)
 804a017:	c6 46 02 00          	movb   $0x0,0x2(%esi)
 804a01b:	b8 00 00 00 00       	mov    $0x0,%eax
 804a020:	8b 4d e4             	mov    -0x1c(%ebp),%ecx
 804a023:	65 33 0d 14 00 00 00 	xor    %gs:0x14,%ecx
 804a02a:	74 05                	je     804a031 <init_driver+0x1d9>
 804a02c:	e8 2f e8 ff ff       	call   8048860 <__stack_chk_fail@plt>
 804a031:	83 c4 4c             	add    $0x4c,%esp
 804a034:	5b                   	pop    %ebx
 804a035:	5e                   	pop    %esi
 804a036:	5f                   	pop    %edi
 804a037:	5d                   	pop    %ebp
 804a038:	c3                   	ret

0804a039 <driver_post>:
 804a039:	55                   	push   %ebp
 804a03a:	89 e5                	mov    %esp,%ebp
 804a03c:	53                   	push   %ebx
 804a03d:	83 ec 24             	sub    $0x24,%esp
 804a040:	8b 45 08             	mov    0x8(%ebp),%eax
 804a043:	8b 5d 14             	mov    0x14(%ebp),%ebx
 804a046:	83 7d 10 00          	cmpl   $0x0,0x10(%ebp)
 804a04a:	74 2b                	je     804a077 <driver_post+0x3e>
 804a04c:	8b 45 0c             	mov    0xc(%ebp),%eax
 804a04f:	89 44 24 08          	mov    %eax,0x8(%esp)
 804a053:	c7 44 24 04 c2 a8 04 	movl   $0x804a8c2,0x4(%esp)
 804a05a:	08
 804a05b:	c7 04 24 01 00 00 00 	movl   $0x1,(%esp)
 804a062:	e8 59 e9 ff ff       	call   80489c0 <__printf_chk@plt>
 804a067:	66 c7 03 4f 4b       	movw   $0x4b4f,(%ebx)
 804a06c:	c6 43 02 00          	movb   $0x0,0x2(%ebx)
 804a070:	b8 00 00 00 00       	mov    $0x0,%eax
 804a075:	eb 4c                	jmp    804a0c3 <driver_post+0x8a>
 804a077:	85 c0                	test   %eax,%eax
 804a079:	74 3a                	je     804a0b5 <driver_post+0x7c>
 804a07b:	80 38 00             	cmpb   $0x0,(%eax)
 804a07e:	74 35                	je     804a0b5 <driver_post+0x7c>
 804a080:	89 5c 24 18          	mov    %ebx,0x18(%esp)
 804a084:	8b 55 0c             	mov    0xc(%ebp),%edx
 804a087:	89 54 24 14          	mov    %edx,0x14(%esp)
 804a08b:	c7 44 24 10 d9 a8 04 	movl   $0x804a8d9,0x10(%esp)
 804a092:	08
 804a093:	89 44 24 0c          	mov    %eax,0xc(%esp)
 804a097:	c7 44 24 08 e0 a8 04 	movl   $0x804a8e0,0x8(%esp)
 804a09e:	08
 804a09f:	c7 44 24 04 26 47 00 	movl   $0x4726,0x4(%esp)
 804a0a6:	00
 804a0a7:	c7 04 24 b4 a8 04 08 	movl   $0x804a8b4,(%esp)
 804a0ae:	e8 25 f5 ff ff       	call   80495d8 <submitr>
 804a0b3:	eb 0e                	jmp    804a0c3 <driver_post+0x8a>
 804a0b5:	66 c7 03 4f 4b       	movw   $0x4b4f,(%ebx)
 804a0ba:	c6 43 02 00          	movb   $0x0,0x2(%ebx)
 804a0be:	b8 00 00 00 00       	mov    $0x0,%eax
 804a0c3:	83 c4 24             	add    $0x24,%esp
 804a0c6:	5b                   	pop    %ebx
 804a0c7:	5d                   	pop    %ebp
 804a0c8:	c3                   	ret

0804a0c9 <hash>:
 804a0c9:	55                   	push   %ebp
 804a0ca:	89 e5                	mov    %esp,%ebp
 804a0cc:	8b 4d 08             	mov    0x8(%ebp),%ecx
 804a0cf:	0f b6 11             	movzbl (%ecx),%edx
 804a0d2:	84 d2                	test   %dl,%dl
 804a0d4:	74 19                	je     804a0ef <hash+0x26>
 804a0d6:	b8 00 00 00 00       	mov    $0x0,%eax
 804a0db:	6b c0 67             	imul   $0x67,%eax,%eax
 804a0de:	83 c1 01             	add    $0x1,%ecx
 804a0e1:	0f be d2             	movsbl %dl,%edx
 804a0e4:	01 d0                	add    %edx,%eax
 804a0e6:	0f b6 11             	movzbl (%ecx),%edx
 804a0e9:	84 d2                	test   %dl,%dl
 804a0eb:	75 ee                	jne    804a0db <hash+0x12>
 804a0ed:	eb 05                	jmp    804a0f4 <hash+0x2b>
 804a0ef:	b8 00 00 00 00       	mov    $0x0,%eax
 804a0f4:	5d                   	pop    %ebp
 804a0f5:	c3                   	ret

0804a0f6 <check>:
 804a0f6:	55                   	push   %ebp
 804a0f7:	89 e5                	mov    %esp,%ebp
 804a0f9:	8b 55 08             	mov    0x8(%ebp),%edx
 804a0fc:	89 d1                	mov    %edx,%ecx
 804a0fe:	c1 e9 1c             	shr    $0x1c,%ecx
 804a101:	b8 00 00 00 00       	mov    $0x0,%eax
 804a106:	85 c9                	test   %ecx,%ecx
 804a108:	74 2f                	je     804a139 <check+0x43>
 804a10a:	80 fa 0a             	cmp    $0xa,%dl
 804a10d:	74 17                	je     804a126 <check+0x30>
 804a10f:	b9 08 00 00 00       	mov    $0x8,%ecx
 804a114:	89 d0                	mov    %edx,%eax
 804a116:	d3 e8                	shr    %cl,%eax
 804a118:	3c 0a                	cmp    $0xa,%al
 804a11a:	74 11                	je     804a12d <check+0x37>
 804a11c:	83 c1 08             	add    $0x8,%ecx
 804a11f:	83 f9 20             	cmp    $0x20,%ecx
 804a122:	75 f0                	jne    804a114 <check+0x1e>
 804a124:	eb 0e                	jmp    804a134 <check+0x3e>
 804a126:	b8 00 00 00 00       	mov    $0x0,%eax
 804a12b:	eb 0c                	jmp    804a139 <check+0x43>
 804a12d:	b8 00 00 00 00       	mov    $0x0,%eax
 804a132:	eb 05                	jmp    804a139 <check+0x43>
 804a134:	b8 01 00 00 00       	mov    $0x1,%eax
 804a139:	5d                   	pop    %ebp
 804a13a:	c3                   	ret

0804a13b <gencookie>:
 804a13b:	55                   	push   %ebp
 804a13c:	89 e5                	mov    %esp,%ebp
 804a13e:	53                   	push   %ebx
 804a13f:	83 ec 14             	sub    $0x14,%esp
 804a142:	8b 45 08             	mov    0x8(%ebp),%eax
 804a145:	89 04 24             	mov    %eax,(%esp)
 804a148:	e8 7c ff ff ff       	call   804a0c9 <hash>
 804a14d:	89 04 24             	mov    %eax,(%esp)
 804a150:	e8 bb e7 ff ff       	call   8048910 <srand@plt>
 804a155:	e8 56 e8 ff ff       	call   80489b0 <rand@plt>
 804a15a:	89 c3                	mov    %eax,%ebx
 804a15c:	89 04 24             	mov    %eax,(%esp)
 804a15f:	e8 92 ff ff ff       	call   804a0f6 <check>
 804a164:	85 c0                	test   %eax,%eax
 804a166:	74 ed                	je     804a155 <gencookie+0x1a>
 804a168:	89 d8                	mov    %ebx,%eax
 804a16a:	83 c4 14             	add    $0x14,%esp
 804a16d:	5b                   	pop    %ebx
 804a16e:	5d                   	pop    %ebp
 804a16f:	c3                   	ret

0804a170 <__libc_csu_init>:
 804a170:	55                   	push   %ebp
 804a171:	57                   	push   %edi
 804a172:	31 ff                	xor    %edi,%edi
 804a174:	56                   	push   %esi
 804a175:	53                   	push   %ebx
 804a176:	e8 05 e9 ff ff       	call   8048a80 <__x86.get_pc_thunk.bx>
 804a17b:	81 c3 85 1e 00 00    	add    $0x1e85,%ebx
 804a181:	83 ec 1c             	sub    $0x1c,%esp
 804a184:	8b 6c 24 30          	mov    0x30(%esp),%ebp
 804a188:	8d b3 0c ff ff ff    	lea    -0xf4(%ebx),%esi
 804a18e:	e8 51 e6 ff ff       	call   80487e4 <_init>
 804a193:	8d 83 08 ff ff ff    	lea    -0xf8(%ebx),%eax
 804a199:	29 c6                	sub    %eax,%esi
 804a19b:	c1 fe 02             	sar    $0x2,%esi
 804a19e:	85 f6                	test   %esi,%esi
 804a1a0:	74 27                	je     804a1c9 <__libc_csu_init+0x59>
 804a1a2:	8d b6 00 00 00 00    	lea    0x0(%esi),%esi
 804a1a8:	8b 44 24 38          	mov    0x38(%esp),%eax
 804a1ac:	89 2c 24             	mov    %ebp,(%esp)
 804a1af:	89 44 24 08          	mov    %eax,0x8(%esp)
 804a1b3:	8b 44 24 34          	mov    0x34(%esp),%eax
 804a1b7:	89 44 24 04          	mov    %eax,0x4(%esp)
 804a1bb:	ff 94 bb 08 ff ff ff 	call   *-0xf8(%ebx,%edi,4)
 804a1c2:	83 c7 01             	add    $0x1,%edi
 804a1c5:	39 f7                	cmp    %esi,%edi
 804a1c7:	75 df                	jne    804a1a8 <__libc_csu_init+0x38>
 804a1c9:	83 c4 1c             	add    $0x1c,%esp
 804a1cc:	5b                   	pop    %ebx
 804a1cd:	5e                   	pop    %esi
 804a1ce:	5f                   	pop    %edi
 804a1cf:	5d                   	pop    %ebp
 804a1d0:	c3                   	ret
 804a1d1:	eb 0d                	jmp    804a1e0 <__libc_csu_fini>
 804a1d3:	90                   	nop
 804a1d4:	90                   	nop
 804a1d5:	90                   	nop
 804a1d6:	90                   	nop
 804a1d7:	90                   	nop
 804a1d8:	90                   	nop
 804a1d9:	90                   	nop
 804a1da:	90                   	nop
 804a1db:	90                   	nop
 804a1dc:	90                   	nop
 804a1dd:	90                   	nop
 804a1de:	90                   	nop
 804a1df:	90                   	nop

0804a1e0 <__libc_csu_fini>:
 804a1e0:	f3 c3                	repz ret

Disassembly of section .fini:

0804a1e4 <_fini>:
 804a1e4:	53                   	push   %ebx
 804a1e5:	83 ec 08             	sub    $0x8,%esp
 804a1e8:	e8 93 e8 ff ff       	call   8048a80 <__x86.get_pc_thunk.bx>
 804a1ed:	81 c3 13 1e 00 00    	add    $0x1e13,%ebx
 804a1f3:	83 c4 08             	add    $0x8,%esp
 804a1f6:	5b                   	pop    %ebx
 804a1f7:	c3                   	ret
